(lp1
(S'622'
S'560'
S'# of inputs'
S''
S'units'
S'4'
S'-100.0'
S'100000.0'
S'1.0'
S'0'
S'0'
S'0'
S'InputISR'
p2
S'Main'
S'0'
S'99'
tp3
a(S'678'
S'616'
S'% Load'
S''
S'units'
S'1'
S'-100.0'
S'100000.0'
S'1.0'
S'0'
S'0'
S'0'
S'J1939 Rx'
p4
S'Main'
S'0'
S'99'
tp5
a(S'578'
S'516'
S'% accum'
S''
S'units'
S'4'
S'-100.0'
S'100000.0'
S'1.0'
S'0'
S'0'
S'0'
S'PWM_Paramet'
p6
S'var_info'
S'0'
S'99'
tp7
a(S'445'
S'444'
S'0 Pwr'
S''
S'%'
S'1'
S'-100.0'
S'100000.0'
S'0.392156862745'
S'0'
S'0'
S'0'
S'Modulate'
p8
S'Solar'
S'1'
S'6'
tp9
a(S'24'
S'23'
S'1/2 PPR'
S''
S'units'
S'2'
S'-100.0'
S'100000.0'
S'1.0'
S'0'
S'0'
S'0'
S'Speed Inpt'
p10
S'Cal Items'
S'1'
S'6'
tp11
a(S'568'
S'506'
S'87654321'
S''
S'units'
S'1'
S'-100.0'
S'100000.0'
S'1.0'
S'0'
S'0'
S'0'
S'Analog'
p12
S'Main'
S'0'
S'99'
tp13
a(S'602'
S'540'
S'87654321'
S''
S'units'
S'1'
S'-100.0'
S'100000.0'
S'1.0'
S'0'
S'0'
S'0'
S'DiagnosticD'
p14
S'87654321'
S'0'
S'99'
tp15
a(S'211'
S'210'
S'ADC Index S0'
S''
S'index'
S'1'
S'-100.0'
S'100000.0'
S'1.0'
S'0'
S'0'
S'0'
S'SensorCal'
p16
S'Solar'
S'1'
S'6'
tp17
a(S'221'
S'220'
S'ADC Index S1'
S''
S'index'
S'1'
S'-100.0'
S'100000.0'
S'1.0'
S'0'
S'0'
S'0'
S'SensorCal'
S'Solar'
S'1'
S'6'
tp18
a(S'230'
S'229'
S'ADC Index S2'
S''
S'index'
S'1'
S'-100.0'
S'100000.0'
S'1.0'
S'0'
S'0'
S'0'
S'SensorCal'
S'Solar'
S'1'
S'6'
tp19
a(S'239'
S'238'
S'ADC Index S3'
S''
S'index'
S'1'
S'-100.0'
S'100000.0'
S'1.0'
S'0'
S'0'
S'0'
S'SensorCal'
S'Solar'
S'1'
S'6'
tp20
a(S'248'
S'247'
S'ADC Index S4'
S''
S'index'
S'1'
S'-100.0'
S'100000.0'
S'1.0'
S'0'
S'0'
S'0'
S'SensorCal'
S'Solar'
S'1'
S'6'
tp21
a(S'257'
S'256'
S'ADC Index S5'
S''
S'index'
S'1'
S'-100.0'
S'100000.0'
S'1.0'
S'0'
S'0'
S'0'
S'SensorCal'
S'Solar'
S'1'
S'6'
tp22
a(S'266'
S'265'
S'ADC Index S7'
S''
S'index'
S'1'
S'-100.0'
S'100000.0'
S'1.0'
S'0'
S'0'
S'0'
S'SensorCal'
S'Solar'
S'1'
S'6'
tp23
a(S'275'
S'274'
S'ADC Index S8'
S''
S'index'
S'1'
S'-100.0'
S'100000.0'
S'1.0'
S'0'
S'0'
S'0'
S'SensorCal'
S'Solar'
S'1'
S'6'
tp24
a(S'209'
S'208'
S'ADC table S0'
S''
S'index'
S'1'
S'-100.0'
S'100000.0'
S'1.0'
S'0'
S'0'
S'0'
S'SensorCal'
S'Solar'
S'1'
S'6'
tp25
a(S'219'
S'218'
S'ADC table S1'
S''
S'index'
S'1'
S'-100.0'
S'100000.0'
S'1.0'
S'0'
S'0'
S'0'
S'SensorCal'
S'Solar'
S'1'
S'6'
tp26
a(S'228'
S'227'
S'ADC table S2'
S''
S'index'
S'1'
S'-100.0'
S'100000.0'
S'1.0'
S'0'
S'0'
S'0'
S'SensorCal'
S'Solar'
S'1'
S'6'
tp27
a(S'237'
S'236'
S'ADC table S3'
S''
S'index'
S'1'
S'-100.0'
S'100000.0'
S'1.0'
S'0'
S'0'
S'0'
S'SensorCal'
S'Solar'
S'1'
S'6'
tp28
a(S'246'
S'245'
S'ADC table S4'
S''
S'index'
S'1'
S'-100.0'
S'100000.0'
S'1.0'
S'0'
S'0'
S'0'
S'SensorCal'
S'Solar'
S'1'
S'6'
tp29
a(S'255'
S'254'
S'ADC table S5'
S''
S'index'
S'1'
S'-100.0'
S'100000.0'
S'1.0'
S'0'
S'0'
S'0'
S'SensorCal'
S'Solar'
S'1'
S'6'
tp30
a(S'264'
S'263'
S'ADC table S7'
S''
S'index'
S'1'
S'-100.0'
S'100000.0'
S'1.0'
S'0'
S'0'
S'0'
S'SensorCal'
S'Solar'
S'1'
S'6'
tp31
a(S'273'
S'272'
S'ADC table S8'
S''
S'index'
S'1'
S'-100.0'
S'100000.0'
S'1.0'
S'0'
S'0'
S'0'
S'SensorCal'
S'Solar'
S'1'
S'6'
tp32
a(S'765'
S'703'
S'AIN1'
S''
S'units'
S'2'
S'-100.0'
S'100000.0'
S'1.0'
S'0'
S'0'
S'0'
S'Pots 10 bit'
p33
S'Main'
S'0'
S'99'
tp34
a(S'766'
S'704'
S'AIN2'
S''
S'units'
S'2'
S'-100.0'
S'100000.0'
S'1.0'
S'0'
S'0'
S'0'
S'Pots 10 bit'
S'Main'
S'0'
S'99'
tp35
a(S'768'
S'706'
S'Act Amps'
S''
S'A'
S'4'
S'-100.0'
S'100000.0'
S'1.0'
S'1'
S'0'
S'0'
S'UserDiag'
p36
S'Speed'
S'0'
S'99'
tp37
a(S'649'
S'587'
S'Act Flt Ce '
S''
S'units'
S'4'
S'-100.0'
S'100000.0'
S'1.0'
S'1'
S'0'
S'0'
S'Gov Items'
p38
S'Main'
S'0'
S'99'
tp39
a(S'7'
S'6'
S'Act Flt Coe'
S''
S'units'
S'1'
S'-100.0'
S'100000.0'
S'1.0'
S'0'
S'0'
S'0'
S'Actuator Gn'
p40
S'Cal Items'
S'1'
S'6'
tp41
a(S'778'
S'716'
S'Analog1'
S''
S'units'
S'4'
S'-100.0'
S'100000.0'
S'1.0'
S'1'
S'0'
S'0'
S'Pots'
p42
S'P1'
S'0'
S'99'
tp43
a(S'565'
S'503'
S'Application ID'
S''
S'units'
S'2'
S'0.0'
S'255.0'
S'1.0'
S'0'
S'0'
S'0'
S'MenuItms'
p44
S'Main'
S'0'
S'99'
tp45
a(S'674'
S'612'
S'Battery Cur'
S''
S'units'
S'1'
S'-100.0'
S'100000.0'
S'1.0'
S'0'
S'0'
S'0'
S'J1939 Tx'
p46
S'Main'
S'0'
S'99'
tp47
a(S'769'
S'707'
S'Battery V'
S''
S'units'
S'4'
S'-100.0'
S'100000.0'
S'1.0'
S'1'
S'0'
S'0'
S'UserDiag'
S'Speed'
S'0'
S'99'
tp48
a(S'675'
S'613'
S'Battery Vol'
S''
S'units'
S'1'
S'-100.0'
S'100000.0'
S'1.0'
S'0'
S'0'
S'0'
S'J1939 Tx'
S'Main'
S'0'
S'99'
tp49
a(S'85'
S'84'
S'Bitmask 0'
S''
S'units'
S'1'
S'-100.0'
S'100000.0'
S'1.0'
S'0'
S'0'
S'0'
S'Stores 1-2'
p50
S'Solar'
S'1'
S'6'
tp51
a(S'116'
S'115'
S'Bitmask 1'
S''
S'units'
S'1'
S'-100.0'
S'100000.0'
S'1.0'
S'0'
S'0'
S'0'
S'Stores 1-2'
S'Solar'
S'1'
S'6'
tp52
a(S'147'
S'146'
S'Bitmask 2'
S''
S'units'
S'1'
S'-100.0'
S'100000.0'
S'1.0'
S'0'
S'0'
S'0'
S'Stores 3-4'
p53
S'Solar'
S'1'
S'6'
tp54
a(S'178'
S'177'
S'Bitmask 3'
S''
S'units'
S'1'
S'-100.0'
S'100000.0'
S'1.0'
S'0'
S'0'
S'0'
S'Stores 3-4'
S'Solar'
S'1'
S'6'
tp55
a(S'710'
S'648'
S'Bot'
S''
S'units'
S'4'
S'-100.0'
S'100000.0'
S'1.0'
S'1'
S'0'
S'0'
S'Tanks'
p56
S'Solar'
S'0'
S'99'
tp57
a(S'717'
S'655'
S'Bot'
S''
S'units'
S'4'
S'-100.0'
S'100000.0'
S'1.0'
S'1'
S'0'
S'0'
S'Tanks'
S'Solar'
S'0'
S'99'
tp58
a(S'724'
S'662'
S'Bot'
S''
S'units'
S'4'
S'-100.0'
S'100000.0'
S'1.0'
S'1'
S'0'
S'0'
S'Tanks'
S'Solar'
S'0'
S'99'
tp59
a(S'731'
S'669'
S'Bot'
S''
S'units'
S'4'
S'-100.0'
S'100000.0'
S'1.0'
S'1'
S'0'
S'0'
S'Tanks'
S'Solar'
S'0'
S'99'
tp60
a(S'79'
S'78'
S'Bt Sen ix 0'
S''
S'index'
S'1'
S'-100.0'
S'100000.0'
S'1.0'
S'0'
S'0'
S'0'
S'Stores 1-2'
S'Solar'
S'1'
S'6'
tp61
a(S'110'
S'109'
S'Bt Sen ix 1'
S''
S'index'
S'1'
S'-100.0'
S'100000.0'
S'1.0'
S'0'
S'0'
S'0'
S'Stores 1-2'
S'Solar'
S'1'
S'6'
tp62
a(S'141'
S'140'
S'Bt Sen ix 2'
S''
S'index'
S'1'
S'-100.0'
S'100000.0'
S'1.0'
S'0'
S'0'
S'0'
S'Stores 3-4'
S'Solar'
S'1'
S'6'
tp63
a(S'172'
S'171'
S'Bt Sen ix 3'
S''
S'index'
S'1'
S'-100.0'
S'100000.0'
S'1.0'
S'0'
S'0'
S'0'
S'Stores 3-4'
S'Solar'
S'1'
S'6'
tp64
a(S'105'
S'104'
S'Byp If Act'
S''
S'units'
S'2'
S'-100.0'
S'100000.0'
S'1.0'
S'0'
S'0'
S'0'
S'Stores 1-2'
S'Solar'
S'1'
S'6'
tp65
a(S'136'
S'135'
S'Byp If Act'
S''
S'units'
S'2'
S'-100.0'
S'100000.0'
S'1.0'
S'0'
S'0'
S'0'
S'Stores 1-2'
S'Solar'
S'1'
S'6'
tp66
a(S'167'
S'166'
S'Byp If Act'
S''
S'units'
S'2'
S'-100.0'
S'100000.0'
S'1.0'
S'0'
S'0'
S'0'
S'Stores 3-4'
S'Solar'
S'1'
S'6'
tp67
a(S'198'
S'197'
S'Byp If Act'
S''
S'units'
S'2'
S'-100.0'
S'100000.0'
S'1.0'
S'0'
S'0'
S'0'
S'Stores 3-4'
S'Solar'
S'1'
S'6'
tp68
a(S'92'
S'91'
S'Bypass 0'
S''
S'deg f'
S'1'
S'-100.0'
S'100000.0'
S'1.0'
S'0'
S'0'
S'0'
S'Stores 1-2'
S'Solar'
S'1'
S'6'
tp69
a(S'123'
S'122'
S'Bypass 1'
S''
S'deg f'
S'1'
S'-100.0'
S'100000.0'
S'1.0'
S'0'
S'0'
S'0'
S'Stores 1-2'
S'Solar'
S'1'
S'6'
tp70
a(S'154'
S'153'
S'Bypass 2'
S''
S'deg f'
S'1'
S'-100.0'
S'100000.0'
S'1.0'
S'0'
S'0'
S'0'
S'Stores 3-4'
S'Solar'
S'1'
S'6'
tp71
a(S'185'
S'184'
S'Bypass 3'
S''
S'deg f'
S'1'
S'-100.0'
S'100000.0'
S'1.0'
S'0'
S'0'
S'0'
S'Stores 3-4'
S'Solar'
S'1'
S'6'
tp72
a(S'516'
S'454'
S'CAL_SIZE'
S''
S'bytes'
S'2'
S'-100.0'
S'100000.0'
S'1.0'
S'0'
S'0'
S'0'
S'CPU'
p73
S'Main'
S'0'
S'99'
tp74
a(S'683'
S'621'
S'CAN SPD x'
S''
S'units'
S'1'
S'-100.0'
S'100000.0'
S'1.0'
S'0'
S'0'
S'0'
S'J1939 Rx'
S'Main'
S'0'
S'99'
tp75
a(S'12'
S'11'
S'CMD_SD'
S''
S'units'
S'1'
S'-100.0'
S'100000.0'
S'1.0'
S'0'
S'0'
S'0'
S'Short Prot'
p76
S'Cal Items'
S'1'
S'6'
tp77
a(S'515'
S'453'
S'CMU_CK0'
S''
S'units'
S'2'
S'-100.0'
S'100000.0'
S'1.0'
S'0'
S'0'
S'0'
S'CPU'
S'Main'
S'0'
S'99'
tp78
a(S'416'
S'415'
S'COP'
S''
S'%'
S'4'
S'-100.0'
S'100000.0'
S'1.0'
S'1'
S'0'
S'0'
S'ENG Monitor'
p79
S'Solar'
S'1'
S'6'
tp80
a(S'577'
S'515'
S'CalCurrent'
S''
S'units'
S'2'
S'-100.0'
S'100000.0'
S'1.0'
S'0'
S'0'
S'0'
S'PWM_Paramet'
S'var_info'
S'0'
S'99'
tp81
a(S'545'
S'483'
S'Can Task'
S''
S'units'
S'4'
S'-100.0'
S'100000.0'
S'1.0'
S'0'
S'0'
S'0'
S'Tasks'
p82
S'Main'
S'0'
S'99'
tp83
a(S'654'
S'592'
S'CaptureRaw'
S''
S'units'
S'1'
S'-100.0'
S'100000.0'
S'1.0'
S'0'
S'0'
S'0'
S'Gov Items'
S'Main'
S'0'
S'99'
tp84
a(S'612'
S'550'
S'Cntr Frq'
S''
S'Ticks / hour'
S'4'
S'-100.0'
S'100000.0'
S'1.0'
S'1'
S'0'
S'0'
S'Hourmeter'
p85
S'Main'
S'0'
S'99'
tp86
a(S'73'
S'72'
S'Cntr. Pwr'
S''
S'watt'
S'1'
S'-100.0'
S'100000.0'
S'1.0'
S'0'
S'0'
S'0'
S'Output Pwr'
p87
S'Solar'
S'1'
S'6'
tp88
a(S'742'
S'680'
S'Col'
S''
S'deg F'
S'4'
S'-100.0'
S'100000.0'
S'1.0'
S'1'
S'0'
S'1'
S'SensorsFilt'
p89
S'Solar'
S'0'
S'99'
tp90
a(S'102'
S'101'
S'Col Delta 0'
S''
S'deg f'
S'1'
S'-100.0'
S'100000.0'
S'1.0'
S'0'
S'0'
S'0'
S'Stores 1-2'
S'Solar'
S'1'
S'6'
tp91
a(S'133'
S'132'
S'Col Delta 1'
S''
S'deg f'
S'1'
S'-100.0'
S'100000.0'
S'1.0'
S'0'
S'0'
S'0'
S'Stores 1-2'
S'Solar'
S'1'
S'6'
tp92
a(S'164'
S'163'
S'Col Delta 2'
S''
S'deg f'
S'1'
S'-100.0'
S'100000.0'
S'1.0'
S'0'
S'0'
S'0'
S'Stores 3-4'
S'Solar'
S'1'
S'6'
tp93
a(S'195'
S'194'
S'Col Delta 3'
S''
S'deg f'
S'1'
S'-100.0'
S'100000.0'
S'1.0'
S'0'
S'0'
S'0'
S'Stores 3-4'
S'Solar'
S'1'
S'6'
tp94
a(S'101'
S'100'
S'Col Tmp ix 0'
S''
S'index'
S'1'
S'-100.0'
S'100000.0'
S'1.0'
S'0'
S'0'
S'0'
S'Stores 1-2'
S'Solar'
S'1'
S'6'
tp95
a(S'132'
S'131'
S'Col Tmp ix 1'
S''
S'index'
S'1'
S'-100.0'
S'100000.0'
S'1.0'
S'0'
S'0'
S'0'
S'Stores 1-2'
S'Solar'
S'1'
S'6'
tp96
a(S'163'
S'162'
S'Col Tmp ix 2'
S''
S'index'
S'1'
S'-100.0'
S'100000.0'
S'1.0'
S'0'
S'0'
S'0'
S'Stores 3-4'
S'Solar'
S'1'
S'6'
tp97
a(S'194'
S'193'
S'Col Tmp ix 3'
S''
S'index'
S'1'
S'-100.0'
S'100000.0'
S'1.0'
S'0'
S'0'
S'0'
S'Stores 3-4'
S'Solar'
S'1'
S'6'
tp98
a(S'746'
S'684'
S'Cold'
S''
S'deg F'
S'4'
S'-100.0'
S'100000.0'
S'1.0'
S'1'
S'0'
S'1'
S'SensorsFilt'
S'Solar'
S'0'
S'99'
tp99
a(S'448'
S'447'
S'Collector'
S''
S'units'
S'1'
S'-100.0'
S'100000.0'
S'1.0'
S'0'
S'0'
S'0'
S'Modulate'
S'Solar'
S'1'
S'6'
tp100
a(S'542'
S'480'
S'Cont. Task'
S''
S'units'
S'4'
S'-100.0'
S'100000.0'
S'1.0'
S'0'
S'0'
S'0'
S'Tasks'
S'Main'
S'0'
S'99'
tp101
a(S'587'
S'525'
S'Crk Revs'
S''
S'units'
S'1'
S'-100.0'
S'100000.0'
S'1.0'
S'0'
S'0'
S'0'
S'ProgramVari'
p102
S'var_info'
S'0'
S'99'
tp103
a(S'627'
S'565'
S'Cur Tooth'
S''
S'units'
S'2'
S'-100.0'
S'100000.0'
S'1.0'
S'0'
S'0'
S'0'
S'InputISR'
S'Main'
S'0'
S'99'
tp104
a(S'20'
S'19'
S'Curr Max'
S''
S'units'
S'2'
S'-100.0'
S'100000.0'
S'1.0'
S'0'
S'0'
S'0'
S'Speed Inpt'
S'Cal Items'
S'1'
S'6'
tp105
a(S'19'
S'18'
S'Curr Min'
S''
S'units'
S'2'
S'-100.0'
S'100000.0'
S'1.0'
S'0'
S'0'
S'0'
S'Speed Inpt'
S'Cal Items'
S'1'
S'6'
tp106
a(S'61'
S'60'
S'CurrentReq'
S''
S'units'
S'2'
S'-100.0'
S'100000.0'
S'1.0'
S'0'
S'0'
S'0'
S'Solar'
p107
S'Cal Items'
S'1'
S'6'
tp108
a(S'582'
S'520'
S'Cyc Magic#'
S''
S'cyc/1 RPM'
S'4'
S'-100.0'
S'100000.0'
S'1.0'
S'1'
S'0'
S'0'
S'ProgramVari'
S'var_info'
S'0'
S'99'
tp109
a(S'531'
S'469'
S'Debg Wait'
S''
S'mS'
S'1'
S'-100.0'
S'100000.0'
S'1.0'
S'0'
S'0'
S'0'
S'Tasks'
S'Main'
S'0'
S'99'
tp110
a(S'543'
S'481'
S'Debug Task'
S''
S'units'
S'4'
S'-100.0'
S'100000.0'
S'1.0'
S'0'
S'0'
S'0'
S'Tasks'
S'Main'
S'0'
S'99'
tp111
a(S'524'
S'462'
S'DebugPrty'
S''
S'units'
S'1'
S'-100.0'
S'100000.0'
S'1.0'
S'0'
S'0'
S'0'
S'Tasks'
S'Main'
S'0'
S'99'
tp112
a(S'698'
S'636'
S'Delta'
S''
S'units'
S'4'
S'-100.0'
S'100000.0'
S'1.0'
S'1'
S'0'
S'0'
S'Solar'
S'Main'
S'0'
S'99'
tp113
a(S'644'
S'582'
S'Der Ctr'
S''
S'units'
S'2'
S'-100.0'
S'100000.0'
S'1.0'
S'0'
S'0'
S'0'
S'InputISR'
S'Main'
S'0'
S'99'
tp114
a(S'666'
S'604'
S'Der Flt ESP'
S''
S'units'
S'1'
S'-100.0'
S'100000.0'
S'1.0'
S'0'
S'0'
S'0'
S'Gov Items'
S'Main'
S'0'
S'99'
tp115
a(S'636'
S'574'
S'Der Per ( r'
S''
S'units'
S'4'
S'-100.0'
S'100000.0'
S'1.0'
S'0'
S'0'
S'0'
S'InputISR'
S'Main'
S'0'
S'99'
tp116
a(S'629'
S'567'
S'Der Time'
S''
S'units'
S'1'
S'-100.0'
S'100000.0'
S'1.0'
S'0'
S'0'
S'0'
S'InputISR'
S'Main'
S'0'
S'99'
tp117
a(S'648'
S'586'
S'DerTeeth'
S''
S'units'
S'1'
S'-100.0'
S'100000.0'
S'1.0'
S'0'
S'0'
S'0'
S'Gov Items'
S'Main'
S'0'
S'99'
tp118
a(S'628'
S'566'
S'DerTooth'
S''
S'units'
S'2'
S'-100.0'
S'100000.0'
S'1.0'
S'0'
S'0'
S'0'
S'InputISR'
S'Main'
S'0'
S'99'
tp119
a(S'532'
S'470'
S'Diag Dly'
S''
S'mS'
S'1'
S'-100.0'
S'100000.0'
S'1.0'
S'0'
S'0'
S'0'
S'Tasks'
S'Main'
S'0'
S'99'
tp120
a(S'559'
S'497'
S'Diag En=13'
S''
S'units'
S'1'
S'-100.0'
S'100000.0'
S'1.0'
S'0'
S'0'
S'0'
S'MenuItms'
S'Main'
S'0'
S'99'
tp121
a(S'607'
S'545'
S'DiagMode'
S''
S'units'
S'1'
S'-100.0'
S'100000.0'
S'1.0'
S'0'
S'0'
S'0'
S'DISC INPUTs'
p122
S'Main'
S'0'
S'99'
tp123
a(S'707'
S'645'
S'Disable 0'
S''
S'units'
S'1'
S'-100.0'
S'100000.0'
S'1.0'
S'0'
S'0'
S'0'
S'Tanks'
S'Solar'
S'0'
S'99'
tp124
a(S'714'
S'652'
S'Disable 1'
S''
S'units'
S'1'
S'-100.0'
S'100000.0'
S'1.0'
S'0'
S'0'
S'0'
S'Tanks'
S'Solar'
S'0'
S'99'
tp125
a(S'721'
S'659'
S'Disable 2'
S''
S'units'
S'1'
S'-100.0'
S'100000.0'
S'1.0'
S'0'
S'0'
S'0'
S'Tanks'
S'Solar'
S'0'
S'99'
tp126
a(S'728'
S'666'
S'Disable 3'
S''
S'units'
S'1'
S'-100.0'
S'100000.0'
S'1.0'
S'0'
S'0'
S'0'
S'Tanks'
S'Solar'
S'0'
S'99'
tp127
a(S'556'
S'494'
S'Disp Conf'
S''
S'units'
S'1'
S'-100.0'
S'100000.0'
S'1.0'
S'0'
S'0'
S'0'
S'MenuItms'
S'Main'
S'0'
S'99'
tp128
a(S'604'
S'542'
S'Dn DB'
S''
S'seconds'
S'1'
S'-100.0'
S'100000.0'
S'0.015999'
S'0'
S'1'
S'0'
S'DISC INPUTs'
S'Main'
S'0'
S'99'
tp129
a(S'538'
S'476'
S'Dsp Dly'
S''
S'mS'
S'1'
S'-100.0'
S'100000.0'
S'1.0'
S'0'
S'0'
S'0'
S'Tasks'
S'Main'
S'0'
S'99'
tp130
a(S'594'
S'532'
S'E2 Init Dly'
S''
S'Ticks'
S'2'
S'-100.0'
S'100000.0'
S'1.0'
S'0'
S'0'
S'0'
S'E2 Tok Dly'
p131
S'Main'
S'0'
S'99'
tp132
a(S'595'
S'533'
S'E2 Mnu Dly'
S''
S'Ticks'
S'2'
S'-100.0'
S'100000.0'
S'1.0'
S'0'
S'0'
S'0'
S'E2 Tok Dly'
S'Main'
S'0'
S'99'
tp133
a(S'596'
S'534'
S'E2 Var Writ'
S''
S'menu'
S'2'
S'-100.0'
S'100000.0'
S'1.0'
S'0'
S'0'
S'0'
S'E2 Tok Dly'
S'Main'
S'0'
S'99'
tp134
a(S'517'
S'455'
S'E2 size'
S''
S'units'
S'2'
S'-100.0'
S'100000.0'
S'1.0'
S'0'
S'0'
S'0'
S'CPU'
S'Main'
S'0'
S'99'
tp135
a(S'593'
S'531'
S'E2DlyCtr'
S''
S'menu'
S'2'
S'-100.0'
S'100000.0'
S'1.0'
S'0'
S'0'
S'0'
S'E2Emul'
p136
S'Main'
S'0'
S'99'
tp137
a(S'592'
S'530'
S'E2WrCyc'
S''
S'menu'
S'2'
S'-100.0'
S'100000.0'
S'1.0'
S'0'
S'0'
S'0'
S'E2Emul'
S'Main'
S'0'
S'99'
tp138
a(S'548'
S'486'
S'EE CAL'
S''
S'units'
S'1'
S'-100.0'
S'100000.0'
S'1.0'
S'0'
S'0'
S'0'
S'Tasks'
S'Main'
S'0'
S'99'
tp139
a(S'599'
S'537'
S'EE Cal Wait'
S''
S'mS'
S'2'
S'-100.0'
S'100000.0'
S'1.0'
S'0'
S'0'
S'0'
S'E2 Tok Dly'
S'Main'
S'0'
S'99'
tp140
a(S'547'
S'485'
S'EE Semi'
S''
S'units'
S'2'
S'-100.0'
S'100000.0'
S'1.0'
S'0'
S'0'
S'0'
S'Tasks'
S'Main'
S'0'
S'99'
tp141
a(S'601'
S'539'
S'EE Write Wa'
S''
S'menu'
S'2'
S'-100.0'
S'100000.0'
S'1.0'
S'0'
S'0'
S'0'
S'E2 Tok Dly'
S'Main'
S'0'
S'99'
tp142
a(S'637'
S'575'
S'EST'
S''
S'units'
S'2'
S'-100.0'
S'100000.0'
S'1.0'
S'0'
S'0'
S'0'
S'InputISR'
S'Main'
S'0'
S'99'
tp143
a(S'686'
S'624'
S'El Pwr'
S''
S'units'
S'4'
S'-100.0'
S'100000.0'
S'1.0'
S'1'
S'0'
S'0'
S'Solar'
S'Main'
S'0'
S'99'
tp144
a(S'412'
S'411'
S'Elec Up Tm'
S''
S'sec'
S'2'
S'-100.0'
S'100000.0'
S'1.024'
S'0'
S'0'
S'0'
S'ENG Monitor'
S'Solar'
S'1'
S'6'
tp145
a(S'413'
S'412'
S'Elec Up W'
S''
S'watt hr'
S'2'
S'-100.0'
S'100000.0'
S'1.0'
S'0'
S'0'
S'0'
S'ENG Monitor'
S'Solar'
S'1'
S'6'
tp146
a(S'689'
S'627'
S'Energy Used'
S''
S'units'
S'4'
S'-100.0'
S'100000.0'
S'1.0'
S'1'
S'0'
S'0'
S'Solar'
S'Main'
S'0'
S'99'
tp147
a(S'690'
S'628'
S'Eng 4 Upd'
S''
S'units'
S'4'
S'-100.0'
S'100000.0'
S'1.0'
S'1'
S'0'
S'0'
S'Solar'
S'Main'
S'0'
S'99'
tp148
a(S'669'
S'607'
S'Eng Speed'
S''
S'units'
S'2'
S'-100.0'
S'100000.0'
S'1.0'
S'0'
S'0'
S'0'
S'J1939 Tx'
S'Main'
S'0'
S'99'
tp149
a(S'676'
S'614'
S'Eng Speed'
S''
S'units'
S'2'
S'-100.0'
S'100000.0'
S'1.0'
S'0'
S'0'
S'0'
S'J1939 Rx'
S'Main'
S'0'
S'99'
tp150
a(S'670'
S'608'
S'EngTemp'
S''
S'units'
S'1'
S'-100.0'
S'100000.0'
S'1.0'
S'0'
S'0'
S'0'
S'J1939 Tx'
S'Main'
S'0'
S'99'
tp151
a(S'533'
S'471'
S'Err E2 Dly'
S''
S'mS'
S'1'
S'-100.0'
S'100000.0'
S'1.0'
S'0'
S'0'
S'0'
S'Tasks'
S'Main'
S'0'
S'99'
tp152
a(S'200'
S'199'
S'F Byp Hys'
S''
S'units'
S'1'
S'-100.0'
S'100000.0'
S'1.0'
S'0'
S'0'
S'0'
S'Stores 3-4'
S'Solar'
S'1'
S'6'
tp153
a(S'203'
S'202'
S'F Byp Out'
S''
S'units'
S'1'
S'-100.0'
S'100000.0'
S'1.0'
S'0'
S'0'
S'0'
S'Stores 3-4'
S'Solar'
S'1'
S'6'
tp154
a(S'199'
S'198'
S'F Bypass Tmp'
S''
S'deg f'
S'1'
S'-100.0'
S'100000.0'
S'1.0'
S'0'
S'0'
S'0'
S'Stores 3-4'
S'Solar'
S'1'
S'6'
tp155
a(S'202'
S'201'
S'F Par Drw'
S''
S'deg F'
S'1'
S'-100.0'
S'100000.0'
S'1.0'
S'0'
S'0'
S'0'
S'Stores 3-4'
S'Solar'
S'1'
S'6'
tp156
a(S'204'
S'203'
S'F Par Out'
S''
S'units'
S'1'
S'-100.0'
S'100000.0'
S'1.0'
S'0'
S'0'
S'0'
S'Stores 3-4'
S'Solar'
S'1'
S'6'
tp157
a(S'201'
S'200'
S'F Store ID'
S''
S'units'
S'1'
S'-100.0'
S'100000.0'
S'1.0'
S'0'
S'0'
S'0'
S'Stores 3-4'
S'Solar'
S'1'
S'6'
tp158
a(S'646'
S'584'
S'FB Gain'
S''
S'units'
S'4'
S'-100.0'
S'100000.0'
S'1.0'
S'1'
S'0'
S'0'
S'Gov Items'
S'Main'
S'0'
S'99'
tp159
a(S'5'
S'4'
S'FF gain'
S''
S'units'
S'1'
S'-100.0'
S'100000.0'
S'1.0'
S'0'
S'0'
S'0'
S'Actuator Gn'
S'Cal Items'
S'1'
S'6'
tp160
a(S'447'
S'446'
S'FULL DTY'
S''
S'units'
S'1'
S'-100.0'
S'100000.0'
S'1.0'
S'0'
S'0'
S'0'
S'Modulate'
S'Solar'
S'1'
S'6'
tp161
a(S'621'
S'559'
S'False Int'
S''
S'units'
S'4'
S'-100.0'
S'100000.0'
S'1.0'
S'0'
S'0'
S'0'
S'InputISR'
S'Main'
S'0'
S'99'
tp162
a(S'750'
S'688'
S'Fault S 0'
S''
S'units'
S'1'
S'-100.0'
S'100000.0'
S'1.0'
S'0'
S'1'
S'0'
S'Temp Err'
p163
S'Solar'
S'0'
S'99'
tp164
a(S'751'
S'689'
S'Fault S 1'
S''
S'units'
S'1'
S'-100.0'
S'100000.0'
S'1.0'
S'0'
S'1'
S'0'
S'Temp Err'
S'Solar'
S'0'
S'99'
tp165
a(S'752'
S'690'
S'Fault S 2'
S''
S'units'
S'1'
S'-100.0'
S'100000.0'
S'1.0'
S'0'
S'1'
S'0'
S'Temp Err'
S'Solar'
S'0'
S'99'
tp166
a(S'753'
S'691'
S'Fault S 3'
S''
S'units'
S'1'
S'-100.0'
S'100000.0'
S'1.0'
S'0'
S'1'
S'0'
S'Temp Err'
S'Solar'
S'0'
S'99'
tp167
a(S'754'
S'692'
S'Fault S 4'
S''
S'units'
S'1'
S'-100.0'
S'100000.0'
S'1.0'
S'0'
S'1'
S'0'
S'Temp Err'
S'Solar'
S'0'
S'99'
tp168
a(S'755'
S'693'
S'Fault S 5'
S''
S'units'
S'1'
S'-100.0'
S'100000.0'
S'1.0'
S'0'
S'1'
S'0'
S'Temp Err'
S'Solar'
S'0'
S'99'
tp169
a(S'756'
S'694'
S'Fault S 6'
S''
S'units'
S'1'
S'-100.0'
S'100000.0'
S'1.0'
S'0'
S'1'
S'0'
S'Temp Err'
S'Solar'
S'0'
S'99'
tp170
a(S'757'
S'695'
S'Fault S 7'
S''
S'units'
S'1'
S'-100.0'
S'100000.0'
S'1.0'
S'0'
S'1'
S'0'
S'Temp Err'
S'Solar'
S'0'
S'99'
tp171
a(S'657'
S'595'
S'Fhi'
S''
S'units'
S'4'
S'-100.0'
S'100000.0'
S'1.0'
S'1'
S'0'
S'0'
S'Gov Items'
S'Main'
S'0'
S'99'
tp172
a(S'421'
S'420'
S'Filter'
S''
S'units'
S'1'
S'-100.0'
S'100000.0'
S'0.392156862745'
S'0'
S'0'
S'0'
S'ENG Monitor'
S'Solar'
S'1'
S'6'
tp173
a(S'215'
S'214'
S'Filter Coe'
S''
S'%'
S'1'
S'-100.0'
S'100000.0'
S'0.392156862745'
S'0'
S'0'
S'0'
S'SensorCal'
S'Solar'
S'1'
S'6'
tp174
a(S'29'
S'28'
S'Fixed Dbnc'
S''
S'mS'
S'2'
S'-100.0'
S'100000.0'
S'0.00025'
S'0'
S'0'
S'0'
S'Speed Inpt'
S'Cal Items'
S'1'
S'6'
tp175
a(S'576'
S'514'
S'FixedCurren'
S''
S'mA'
S'2'
S'-100.0'
S'100000.0'
S'1.0'
S'0'
S'0'
S'1'
S'PWM_Paramet'
S'var_info'
S'0'
S'99'
tp176
a(S'658'
S'596'
S'Flo'
S''
S'units'
S'4'
S'-100.0'
S'100000.0'
S'1.0'
S'1'
S'0'
S'0'
S'Gov Items'
S'Main'
S'0'
S'99'
tp177
a(S'696'
S'634'
S'Flow'
S''
S'units'
S'4'
S'-100.0'
S'100000.0'
S'1.0'
S'1'
S'0'
S'0'
S'Solar'
S'Main'
S'0'
S'99'
tp178
a(S'419'
S'418'
S'FlowRate'
S''
S'gpm'
S'4'
S'-100.0'
S'100000.0'
S'1.0'
S'1'
S'0'
S'0'
S'ENG Monitor'
S'Solar'
S'1'
S'6'
tp179
a(S'695'
S'633'
S'Flt Pwr'
S''
S'units'
S'4'
S'-100.0'
S'100000.0'
S'1.0'
S'1'
S'0'
S'0'
S'Solar'
S'Main'
S'0'
S'99'
tp180
a(S'659'
S'597'
S'Fraw'
S''
S'units'
S'4'
S'-100.0'
S'100000.0'
S'1.0'
S'1'
S'0'
S'0'
S'Gov Items'
S'Main'
S'0'
S'99'
tp181
a(S'91'
S'90'
S'Frz tmp 0'
S''
S'deg f'
S'1'
S'-100.0'
S'100000.0'
S'1.0'
S'0'
S'0'
S'0'
S'Stores 1-2'
S'Solar'
S'1'
S'6'
tp182
a(S'122'
S'121'
S'Frz tmp 1'
S''
S'deg f'
S'1'
S'-100.0'
S'100000.0'
S'1.0'
S'0'
S'0'
S'0'
S'Stores 1-2'
S'Solar'
S'1'
S'6'
tp183
a(S'153'
S'152'
S'Frz tmp 2'
S''
S'deg f'
S'1'
S'-100.0'
S'100000.0'
S'1.0'
S'0'
S'0'
S'0'
S'Stores 3-4'
S'Solar'
S'1'
S'6'
tp184
a(S'184'
S'183'
S'Frz tmp 3'
S''
S'deg f'
S'1'
S'-100.0'
S'100000.0'
S'1.0'
S'0'
S'0'
S'0'
S'Stores 3-4'
S'Solar'
S'1'
S'6'
tp185
a(S'408'
S'407'
S'Glycol Conc'
S''
S'% glycol'
S'4'
S'-100.0'
S'100000.0'
S'100.0'
S'1'
S'0'
S'0'
S'ENG Monitor'
S'Solar'
S'1'
S'6'
tp186
a(S'560'
S'498'
S'GuiEnable'
S''
S'units'
S'1'
S'-100.0'
S'100000.0'
S'1.0'
S'0'
S'0'
S'0'
S'MenuItms'
S'Main'
S'0'
S'99'
tp187
a(S'600'
S'538'
S'HM Clear Ti'
S''
S'mS'
S'2'
S'-100.0'
S'100000.0'
S'1.0'
S'0'
S'0'
S'0'
S'E2 Tok Dly'
S'Main'
S'0'
S'99'
tp188
a(S'616'
S'554'
S'HM Rd Dly'
S''
S'mS'
S'1'
S'-100.0'
S'100000.0'
S'0.5'
S'0'
S'0'
S'0'
S'Hourmeter'
S'Main'
S'0'
S'99'
tp189
a(S'608'
S'546'
S'HM Tck Dv'
S''
S'units'
S'1'
S'-100.0'
S'100000.0'
S'1.0'
S'0'
S'0'
S'0'
S'Hourmeter'
S'Main'
S'0'
S'99'
tp190
a(S'598'
S'536'
S'HM Upd Wt'
S''
S'mS'
S'2'
S'-100.0'
S'100000.0'
S'1.0'
S'0'
S'0'
S'0'
S'E2 Tok Dly'
S'Main'
S'0'
S'99'
tp191
a(S'597'
S'535'
S'HM Wait'
S''
S'menu'
S'2'
S'-100.0'
S'100000.0'
S'1.0'
S'0'
S'0'
S'0'
S'E2 Tok Dly'
S'Main'
S'0'
S'99'
tp192
a(S'614'
S'552'
S'HM Wr Indx'
S''
S'units'
S'1'
S'-100.0'
S'100000.0'
S'1.0'
S'0'
S'0'
S'0'
S'Hourmeter'
S'Main'
S'0'
S'99'
tp193
a(S'744'
S'682'
S'HT'
S''
S'deg F'
S'4'
S'-100.0'
S'100000.0'
S'1.0'
S'1'
S'0'
S'1'
S'SensorsFilt'
S'Solar'
S'0'
S'99'
tp194
a(S'86'
S'85'
S'HeatDlta 0'
S''
S'deg f'
S'1'
S'-100.0'
S'100000.0'
S'1.0'
S'0'
S'0'
S'0'
S'Stores 1-2'
S'Solar'
S'1'
S'6'
tp195
a(S'117'
S'116'
S'HeatDlta 1'
S''
S'deg f'
S'1'
S'-100.0'
S'100000.0'
S'1.0'
S'0'
S'0'
S'0'
S'Stores 1-2'
S'Solar'
S'1'
S'6'
tp196
a(S'148'
S'147'
S'HeatDlta 2'
S''
S'deg f'
S'1'
S'-100.0'
S'100000.0'
S'1.0'
S'0'
S'0'
S'0'
S'Stores 3-4'
S'Solar'
S'1'
S'6'
tp197
a(S'179'
S'178'
S'HeatDlta 3'
S''
S'deg f'
S'1'
S'-100.0'
S'100000.0'
S'1.0'
S'0'
S'0'
S'0'
S'Stores 3-4'
S'Solar'
S'1'
S'6'
tp198
a(S'87'
S'86'
S'HeatHyst 0'
S''
S'deg f'
S'1'
S'-100.0'
S'100000.0'
S'1.0'
S'0'
S'0'
S'0'
S'Stores 1-2'
S'Solar'
S'1'
S'6'
tp199
a(S'118'
S'117'
S'HeatHyst 1'
S''
S'deg f'
S'1'
S'-100.0'
S'100000.0'
S'1.0'
S'0'
S'0'
S'0'
S'Stores 1-2'
S'Solar'
S'1'
S'6'
tp200
a(S'149'
S'148'
S'HeatHyst 2'
S''
S'deg f'
S'1'
S'-100.0'
S'100000.0'
S'1.0'
S'0'
S'0'
S'0'
S'Stores 3-4'
S'Solar'
S'1'
S'6'
tp201
a(S'180'
S'179'
S'HeatHyst 3'
S''
S'deg f'
S'1'
S'-100.0'
S'100000.0'
S'1.0'
S'0'
S'0'
S'0'
S'Stores 3-4'
S'Solar'
S'1'
S'6'
tp202
a(S'745'
S'683'
S'Hot'
S''
S'deg F'
S'4'
S'-100.0'
S'100000.0'
S'1.0'
S'1'
S'0'
S'1'
S'SensorsFilt'
S'Solar'
S'0'
S'99'
tp203
a(S'544'
S'482'
S'Hour Task'
S''
S'units'
S'4'
S'-100.0'
S'100000.0'
S'1.0'
S'0'
S'0'
S'0'
S'Tasks'
S'Main'
S'0'
S'99'
tp204
a(S'613'
S'551'
S'Hours'
S''
S'units'
S'4'
S'-100.0'
S'100000.0'
S'1.0'
S'1'
S'0'
S'0'
S'Hourmeter'
S'Main'
S'0'
S'99'
tp205
a(S'525'
S'463'
S'HoursPrty'
S''
S'units'
S'1'
S'-100.0'
S'100000.0'
S'1.0'
S'0'
S'0'
S'0'
S'Tasks'
S'Main'
S'0'
S'99'
tp206
a(S'526'
S'464'
S'HoursPrty'
S''
S'units'
S'1'
S'-100.0'
S'100000.0'
S'1.0'
S'0'
S'0'
S'0'
S'Tasks'
S'Main'
S'0'
S'99'
tp207
a(S'609'
S'547'
S'Hr Tck'
S''
S'units'
S'8'
S'-100.0'
S'100000.0'
S'1.0'
S'0'
S'0'
S'0'
S'Hourmeter'
S'Main'
S'0'
S'99'
tp208
a(S'450'
S'449'
S'Hysteresis'
S''
S'units'
S'1'
S'-100.0'
S'100000.0'
S'1.0'
S'0'
S'0'
S'0'
S'Modulate'
S'Solar'
S'1'
S'6'
tp209
a(S'571'
S'509'
S'I A F'
S''
S'a/d units'
S'2'
S'-100.0'
S'100000.0'
S'1.0'
S'0'
S'0'
S'0'
S'Analog'
S'Main'
S'0'
S'99'
tp210
a(S'574'
S'512'
S'I Des'
S''
S'mA'
S'2'
S'-100.0'
S'100000.0'
S'1.0'
S'0'
S'0'
S'0'
S'PWM_Paramet'
S'var_info'
S'0'
S'99'
tp211
a(S'570'
S'508'
S'I accum.'
S''
S'a/d units'
S'4'
S'-100.0'
S'100000.0'
S'1.0'
S'0'
S'0'
S'0'
S'Analog'
S'Main'
S'0'
S'99'
tp212
a(S'667'
S'605'
S'I fb volt c'
S''
S'units'
S'4'
S'-100.0'
S'100000.0'
S'1.0'
S'1'
S'0'
S'0'
S'Gov Items'
S'Main'
S'0'
S'99'
tp213
a(S'569'
S'507'
S'I raw'
S''
S'a/d units'
S'2'
S'-100.0'
S'100000.0'
S'1.0'
S'0'
S'0'
S'0'
S'Analog'
S'Main'
S'0'
S'99'
tp214
a(S'11'
S'10'
S'IM DLY'
S''
S'seconds'
S'1'
S'-100.0'
S'100000.0'
S'0.015999'
S'0'
S'0'
S'0'
S'Short Prot'
S'Cal Items'
S'1'
S'6'
tp215
a(S'575'
S'513'
S'Iact'
S''
S'mA'
S'2'
S'-100.0'
S'100000.0'
S'1.0'
S'0'
S'0'
S'1'
S'PWM_Paramet'
S'var_info'
S'0'
S'99'
tp216
a(S'434'
S'433'
S'In 0'
S''
S'W/Hr'
S'2'
S'-100.0'
S'100000.0'
S'1.0'
S'0'
S'0'
S'0'
S'Modulate'
S'Solar'
S'1'
S'6'
tp217
a(S'436'
S'435'
S'In 1'
S''
S'W/Hr'
S'2'
S'-100.0'
S'100000.0'
S'1.0'
S'0'
S'0'
S'0'
S'Modulate'
S'Solar'
S'1'
S'6'
tp218
a(S'438'
S'437'
S'In 2'
S''
S'W/Hr'
S'2'
S'-100.0'
S'100000.0'
S'1.0'
S'0'
S'0'
S'0'
S'Modulate'
S'Solar'
S'1'
S'6'
tp219
a(S'440'
S'439'
S'In 3'
S''
S'W/Hr'
S'2'
S'-100.0'
S'100000.0'
S'1.0'
S'0'
S'0'
S'0'
S'Modulate'
S'Solar'
S'1'
S'6'
tp220
a(S'442'
S'441'
S'In 4'
S''
S'W/Hr'
S'2'
S'-100.0'
S'100000.0'
S'1.0'
S'0'
S'0'
S'0'
S'Modulate'
S'Solar'
S'1'
S'6'
tp221
a(S'42'
S'41'
S'In Invert 1-8'
S''
S'units'
S'1'
S'-100.0'
S'100000.0'
S'1.0'
S'0'
S'0'
S'0'
S'IO Config'
p222
S'Cal Items'
S'1'
S'6'
tp223
a(S'44'
S'43'
S'In Invert 17-24'
S''
S'units'
S'1'
S'-100.0'
S'100000.0'
S'1.0'
S'0'
S'0'
S'0'
S'IO Config'
S'Cal Items'
S'1'
S'6'
tp224
a(S'45'
S'44'
S'In Invert 25-32'
S''
S'units'
S'1'
S'-100.0'
S'100000.0'
S'1.0'
S'0'
S'0'
S'0'
S'IO Config'
S'Cal Items'
S'1'
S'6'
tp225
a(S'43'
S'42'
S'In Invert 9-16'
S''
S'units'
S'1'
S'-100.0'
S'100000.0'
S'1.0'
S'0'
S'0'
S'0'
S'IO Config'
S'Cal Items'
S'1'
S'6'
tp226
a(S'635'
S'573'
S'In Per'
S''
S'units'
S'4'
S'-100.0'
S'100000.0'
S'1.0'
S'0'
S'0'
S'0'
S'InputISR'
S'Main'
S'0'
S'99'
tp227
a(S'700'
S'638'
S'In T'
S''
S'units'
S'4'
S'-100.0'
S'100000.0'
S'1.0'
S'1'
S'0'
S'0'
S'Solar'
S'Main'
S'0'
S'99'
tp228
a(S'417'
S'416'
S'InId'
S''
S'ID'
S'1'
S'-100.0'
S'100000.0'
S'1.0'
S'0'
S'0'
S'0'
S'ENG Monitor'
S'Solar'
S'1'
S'6'
tp229
a(S'527'
S'465'
S'InitPrty'
S''
S'units'
S'1'
S'-100.0'
S'100000.0'
S'1.0'
S'0'
S'0'
S'0'
S'Tasks'
S'Main'
S'0'
S'99'
tp230
a(S'567'
S'505'
S'Inow'
S''
S'units'
S'2'
S'-100.0'
S'100000.0'
S'1.0'
S'0'
S'0'
S'0'
S'Analog'
S'Main'
S'0'
S'99'
tp231
a(S'581'
S'519'
S'Input Cnfg'
S''
S'units'
S'1'
S'-100.0'
S'100000.0'
S'1.0'
S'0'
S'0'
S'0'
S'ProgramVari'
S'var_info'
S'0'
S'99'
tp232
a(S'58'
S'57'
S'InputTime'
S''
S'units'
S'2'
S'-100.0'
S'100000.0'
S'1.0'
S'0'
S'0'
S'0'
S'Solar'
S'Cal Items'
S'1'
S'6'
tp233
a(S'2'
S'1'
S'Kp'
S''
S'units'
S'1'
S'-100.0'
S'100000.0'
S'1.0'
S'0'
S'0'
S'0'
S'Actuator Gn'
S'Cal Items'
S'1'
S'6'
tp234
a(S'640'
S'578'
S'Last CLC TM'
S''
S'units'
S'4'
S'-100.0'
S'100000.0'
S'1.0'
S'0'
S'0'
S'0'
S'InputISR'
S'Main'
S'0'
S'99'
tp235
a(S'642'
S'580'
S'Last Teeth'
S''
S'units'
S'2'
S'-100.0'
S'100000.0'
S'1.0'
S'0'
S'0'
S'0'
S'InputISR'
S'Main'
S'0'
S'99'
tp236
a(S'539'
S'477'
S'Log Dly'
S''
S'mS'
S'1'
S'-100.0'
S'100000.0'
S'1.0'
S'0'
S'0'
S'0'
S'Tasks'
S'Main'
S'0'
S'99'
tp237
a(S'584'
S'522'
S'Mag Pulses'
S''
S'time'
S'2'
S'-100.0'
S'100000.0'
S'1.0'
S'0'
S'0'
S'0'
S'ProgramVari'
S'var_info'
S'0'
S'99'
tp238
a(S'26'
S'25'
S'MagClcPct'
S''
S'%'
S'1'
S'-100.0'
S'100000.0'
S'0.392156862745'
S'0'
S'0'
S'0'
S'Speed Inpt'
S'Cal Items'
S'1'
S'6'
tp239
a(S'205'
S'204'
S'Mask'
S''
S'units'
S'1'
S'-100.0'
S'100000.0'
S'1.0'
S'0'
S'0'
S'0'
S'Stores 3-4'
S'Solar'
S'1'
S'6'
tp240
a(S'90'
S'89'
S'Max Flw Dlt'
S''
S'deg f'
S'1'
S'-100.0'
S'100000.0'
S'1.0'
S'0'
S'0'
S'0'
S'Stores 1-2'
S'Solar'
S'1'
S'6'
tp241
a(S'121'
S'120'
S'Max Flw Dlt'
S''
S'deg f'
S'1'
S'-100.0'
S'100000.0'
S'1.0'
S'0'
S'0'
S'0'
S'Stores 1-2'
S'Solar'
S'1'
S'6'
tp242
a(S'152'
S'151'
S'Max Flw Dlt'
S''
S'deg f'
S'1'
S'-100.0'
S'100000.0'
S'1.0'
S'0'
S'0'
S'0'
S'Stores 3-4'
S'Solar'
S'1'
S'6'
tp243
a(S'183'
S'182'
S'Max Flw Dlt'
S''
S'deg f'
S'1'
S'-100.0'
S'100000.0'
S'1.0'
S'0'
S'0'
S'0'
S'Stores 3-4'
S'Solar'
S'1'
S'6'
tp244
a(S'611'
S'549'
S'Max Metr'
S''
S'units'
S'8'
S'-100.0'
S'100000.0'
S'1.0'
S'0'
S'0'
S'0'
S'Hourmeter'
S'Main'
S'0'
S'99'
tp245
a(S'553'
S'491'
S'Max Value'
S''
S'sec'
S'1'
S'-100.0'
S'100000.0'
S'0.016'
S'0'
S'0'
S'0'
S'Tasks'
S'Main'
S'0'
S'99'
tp246
a(S'212'
S'211'
S'Max tmp S0'
S''
S'deg f'
S'2'
S'-100.0'
S'100000.0'
S'1.0'
S'0'
S'1'
S'0'
S'SensorCal'
S'Solar'
S'1'
S'6'
tp247
a(S'222'
S'221'
S'Max tmp S1'
S''
S'deg f'
S'2'
S'-100.0'
S'100000.0'
S'1.0'
S'0'
S'1'
S'0'
S'SensorCal'
S'Solar'
S'1'
S'6'
tp248
a(S'231'
S'230'
S'Max tmp S2'
S''
S'deg f'
S'2'
S'-100.0'
S'100000.0'
S'1.0'
S'0'
S'1'
S'0'
S'SensorCal'
S'Solar'
S'1'
S'6'
tp249
a(S'240'
S'239'
S'Max tmp S3'
S''
S'deg f'
S'2'
S'-100.0'
S'100000.0'
S'1.0'
S'0'
S'1'
S'0'
S'SensorCal'
S'Solar'
S'1'
S'6'
tp250
a(S'249'
S'248'
S'Max tmp S4'
S''
S'deg f'
S'2'
S'-100.0'
S'100000.0'
S'1.0'
S'0'
S'1'
S'0'
S'SensorCal'
S'Solar'
S'1'
S'6'
tp251
a(S'258'
S'257'
S'Max tmp S5'
S''
S'deg f'
S'2'
S'-100.0'
S'100000.0'
S'1.0'
S'0'
S'1'
S'0'
S'SensorCal'
S'Solar'
S'1'
S'6'
tp252
a(S'267'
S'266'
S'Max tmp S7'
S''
S'deg f'
S'2'
S'-100.0'
S'100000.0'
S'1.0'
S'0'
S'1'
S'0'
S'SensorCal'
S'Solar'
S'1'
S'6'
tp253
a(S'276'
S'275'
S'Max tmp S8'
S''
S'deg f'
S'2'
S'-100.0'
S'100000.0'
S'1.0'
S'0'
S'1'
S'0'
S'SensorCal'
S'Solar'
S'1'
S'6'
tp254
a(S'3'
S'2'
S'MaxPW'
S''
S'units'
S'2'
S'-100.0'
S'100000.0'
S'1.0'
S'0'
S'0'
S'0'
S'Actuator Gn'
S'Cal Items'
S'1'
S'6'
tp255
a(S'585'
S'523'
S'MaxSpeed'
S''
S'rpm'
S'2'
S'-100.0'
S'100000.0'
S'1.0'
S'0'
S'0'
S'0'
S'ProgramVari'
S'var_info'
S'0'
S'99'
tp256
a(S'59'
S'58'
S'Menu Fast'
S''
S'sec'
S'2'
S'-100.0'
S'100000.0'
S'1.0'
S'0'
S'0'
S'0'
S'Solar'
S'Cal Items'
S'1'
S'6'
tp257
a(S'57'
S'56'
S'MenuDly'
S''
S'Sec'
S'2'
S'-100.0'
S'100000.0'
S'0.0005'
S'0'
S'0'
S'0'
S'Solar'
S'Cal Items'
S'1'
S'6'
tp258
a(S'561'
S'499'
S'MenuWrEn'
S''
S'units'
S'2'
S'-100.0'
S'100000.0'
S'1.0'
S'0'
S'0'
S'0'
S'MenuItms'
S'Main'
S'0'
S'99'
tp259
a(S'626'
S'564'
S'Min Cnts/In'
S''
S'uS'
S'4'
S'-100.0'
S'100000.0'
S'0.25'
S'0'
S'0'
S'0'
S'InputISR'
S'Main'
S'0'
S'99'
tp260
a(S'610'
S'548'
S'Min Metr'
S''
S'units'
S'8'
S'-100.0'
S'100000.0'
S'1.0'
S'0'
S'0'
S'0'
S'Hourmeter'
S'Main'
S'0'
S'99'
tp261
a(S'213'
S'212'
S'Min Tmp S0'
S''
S'deg f'
S'2'
S'-100.0'
S'100000.0'
S'1.0'
S'0'
S'1'
S'0'
S'SensorCal'
S'Solar'
S'1'
S'6'
tp262
a(S'223'
S'222'
S'Min Tmp S1'
S''
S'deg f'
S'2'
S'-100.0'
S'100000.0'
S'1.0'
S'0'
S'1'
S'0'
S'SensorCal'
S'Solar'
S'1'
S'6'
tp263
a(S'232'
S'231'
S'Min Tmp S2'
S''
S'deg f'
S'2'
S'-100.0'
S'100000.0'
S'1.0'
S'0'
S'1'
S'0'
S'SensorCal'
S'Solar'
S'1'
S'6'
tp264
a(S'241'
S'240'
S'Min Tmp S3'
S''
S'deg f'
S'2'
S'-100.0'
S'100000.0'
S'1.0'
S'0'
S'1'
S'0'
S'SensorCal'
S'Solar'
S'1'
S'6'
tp265
a(S'250'
S'249'
S'Min Tmp S4'
S''
S'deg f'
S'2'
S'-100.0'
S'100000.0'
S'1.0'
S'0'
S'1'
S'0'
S'SensorCal'
S'Solar'
S'1'
S'6'
tp266
a(S'259'
S'258'
S'Min Tmp S5'
S''
S'deg f'
S'2'
S'-100.0'
S'100000.0'
S'1.0'
S'0'
S'1'
S'0'
S'SensorCal'
S'Solar'
S'1'
S'6'
tp267
a(S'268'
S'267'
S'Min Tmp S7'
S''
S'deg f'
S'2'
S'-100.0'
S'100000.0'
S'1.0'
S'0'
S'1'
S'0'
S'SensorCal'
S'Solar'
S'1'
S'6'
tp268
a(S'277'
S'276'
S'Min Tmp S8'
S''
S'deg f'
S'2'
S'-100.0'
S'100000.0'
S'1.0'
S'0'
S'1'
S'0'
S'SensorCal'
S'Solar'
S'1'
S'6'
tp269
a(S'411'
S'410'
S'Min Up Eng'
S''
S'BTU'
S'4'
S'-100.0'
S'100000.0'
S'1.0'
S'0'
S'0'
S'0'
S'ENG Monitor'
S'Solar'
S'1'
S'6'
tp270
a(S'6'
S'5'
S'Min Volts'
S''
S'volts'
S'2'
S'-100.0'
S'100000.0'
S'0.02099609375'
S'0'
S'0'
S'0'
S'Actuator Gn'
S'Cal Items'
S'1'
S'6'
tp271
a(S'4'
S'3'
S'MinPW'
S''
S'units'
S'2'
S'-100.0'
S'100000.0'
S'1.0'
S'0'
S'0'
S'0'
S'Actuator Gn'
S'Cal Items'
S'1'
S'6'
tp272
a(S'641'
S'579'
S'MinTeeth'
S''
S'units'
S'2'
S'-100.0'
S'100000.0'
S'1.0'
S'0'
S'0'
S'0'
S'InputISR'
S'Main'
S'0'
S'99'
tp273
a(S'104'
S'103'
S'Mn Off Tm 0'
S''
S'sec'
S'1'
S'-100.0'
S'100000.0'
S'1.0'
S'0'
S'0'
S'0'
S'Stores 1-2'
S'Solar'
S'1'
S'6'
tp274
a(S'135'
S'134'
S'Mn Off Tm 1'
S''
S'sec'
S'1'
S'-100.0'
S'100000.0'
S'1.0'
S'0'
S'0'
S'0'
S'Stores 1-2'
S'Solar'
S'1'
S'6'
tp275
a(S'166'
S'165'
S'Mn Off Tm 2'
S''
S'sec'
S'1'
S'-100.0'
S'100000.0'
S'1.0'
S'0'
S'0'
S'0'
S'Stores 3-4'
S'Solar'
S'1'
S'6'
tp276
a(S'197'
S'196'
S'Mn Off Tm 3'
S''
S'sec'
S'1'
S'-100.0'
S'100000.0'
S'1.0'
S'0'
S'0'
S'0'
S'Stores 3-4'
S'Solar'
S'1'
S'6'
tp277
a(S'103'
S'102'
S'Mn On Tm 0'
S''
S'sec'
S'1'
S'-100.0'
S'100000.0'
S'1.0'
S'0'
S'0'
S'0'
S'Stores 1-2'
S'Solar'
S'1'
S'6'
tp278
a(S'134'
S'133'
S'Mn On Tm 1'
S''
S'sec'
S'1'
S'-100.0'
S'100000.0'
S'1.0'
S'0'
S'0'
S'0'
S'Stores 1-2'
S'Solar'
S'1'
S'6'
tp279
a(S'165'
S'164'
S'Mn On Tm 2'
S''
S'sec'
S'1'
S'-100.0'
S'100000.0'
S'1.0'
S'0'
S'0'
S'0'
S'Stores 3-4'
S'Solar'
S'1'
S'6'
tp280
a(S'196'
S'195'
S'Mn On Tm 3'
S''
S'sec'
S'1'
S'-100.0'
S'100000.0'
S'1.0'
S'0'
S'0'
S'0'
S'Stores 3-4'
S'Solar'
S'1'
S'6'
tp281
a(S'702'
S'640'
S'Mod Counter'
S''
S'sec'
S'1'
S'-100.0'
S'100000.0'
S'1.024'
S'0'
S'0'
S'0'
S'Solar'
S'Main'
S'0'
S'99'
tp282
a(S'701'
S'639'
S'Mod Dty'
S''
S'%'
S'1'
S'-100.0'
S'100000.0'
S'0.392156862745'
S'0'
S'0'
S'0'
S'Solar'
S'Main'
S'0'
S'99'
tp283
a(S'446'
S'445'
S'Mod Filt'
S''
S'%'
S'1'
S'-100.0'
S'100000.0'
S'0.392156862745'
S'0'
S'0'
S'0'
S'Modulate'
S'Solar'
S'1'
S'6'
tp284
a(S'422'
S'421'
S'Mod Index 0'
S''
S'units'
S'1'
S'-100.0'
S'100000.0'
S'1.0'
S'0'
S'0'
S'0'
S'Modulate'
S'Solar'
S'1'
S'6'
tp285
a(S'423'
S'422'
S'Mod Index 0'
S''
S'units'
S'1'
S'-100.0'
S'100000.0'
S'1.0'
S'0'
S'0'
S'0'
S'Modulate'
S'Solar'
S'1'
S'6'
tp286
a(S'424'
S'423'
S'Mod Index 1'
S''
S'units'
S'1'
S'-100.0'
S'100000.0'
S'1.0'
S'0'
S'0'
S'0'
S'Modulate'
S'Solar'
S'1'
S'6'
tp287
a(S'425'
S'424'
S'Mod Index 2'
S''
S'units'
S'1'
S'-100.0'
S'100000.0'
S'1.0'
S'0'
S'0'
S'0'
S'Modulate'
S'Solar'
S'1'
S'6'
tp288
a(S'426'
S'425'
S'Mod Index 3'
S''
S'units'
S'1'
S'-100.0'
S'100000.0'
S'1.0'
S'0'
S'0'
S'0'
S'Modulate'
S'Solar'
S'1'
S'6'
tp289
a(S'427'
S'426'
S'Mod Index 4'
S''
S'units'
S'1'
S'-100.0'
S'100000.0'
S'1.0'
S'0'
S'0'
S'0'
S'Modulate'
S'Solar'
S'1'
S'6'
tp290
a(S'428'
S'427'
S'Mod Index 5'
S''
S'units'
S'1'
S'-100.0'
S'100000.0'
S'1.0'
S'0'
S'0'
S'0'
S'Modulate'
S'Solar'
S'1'
S'6'
tp291
a(S'429'
S'428'
S'Mod Index 6'
S''
S'units'
S'1'
S'-100.0'
S'100000.0'
S'1.0'
S'0'
S'0'
S'0'
S'Modulate'
S'Solar'
S'1'
S'6'
tp292
a(S'430'
S'429'
S'Mod Index 7'
S''
S'units'
S'1'
S'-100.0'
S'100000.0'
S'1.0'
S'0'
S'0'
S'0'
S'Modulate'
S'Solar'
S'1'
S'6'
tp293
a(S'431'
S'430'
S'Mod Index 8'
S''
S'units'
S'1'
S'-100.0'
S'100000.0'
S'1.0'
S'0'
S'0'
S'0'
S'Modulate'
S'Solar'
S'1'
S'6'
tp294
a(S'432'
S'431'
S'Mod Index 9'
S''
S'units'
S'1'
S'-100.0'
S'100000.0'
S'1.0'
S'0'
S'0'
S'0'
S'Modulate'
S'Solar'
S'1'
S'6'
tp295
a(S'703'
S'641'
S'Mod Out'
S''
S'units'
S'1'
S'-100.0'
S'100000.0'
S'1.0'
S'0'
S'0'
S'0'
S'Solar'
S'Main'
S'0'
S'99'
tp296
a(S'546'
S'484'
S'Monitor Tas'
S''
S'units'
S'4'
S'-100.0'
S'100000.0'
S'1.0'
S'0'
S'0'
S'0'
S'Tasks'
S'Main'
S'0'
S'99'
tp297
a(S'528'
S'466'
S'Monitor pri'
S''
S'units'
S'1'
S'-100.0'
S'100000.0'
S'1.0'
S'0'
S'0'
S'0'
S'Tasks'
S'Main'
S'0'
S'99'
tp298
a(S'444'
S'443'
S'Neg Pwr %'
S''
S'Duty'
S'1'
S'-100.0'
S'100000.0'
S'0.392156862745'
S'0'
S'0'
S'0'
S'Modulate'
S'Solar'
S'1'
S'6'
tp299
a(S'693'
S'631'
S'NegEgy'
S''
S'units'
S'4'
S'-100.0'
S'100000.0'
S'1.0'
S'1'
S'0'
S'0'
S'Solar'
S'Main'
S'0'
S'99'
tp300
a(S'623'
S'561'
S'New Ctr'
S''
S'units'
S'4'
S'-100.0'
S'100000.0'
S'1.0'
S'0'
S'0'
S'0'
S'InputISR'
S'Main'
S'0'
S'99'
tp301
a(S'704'
S'642'
S'New Dty'
S''
S'%'
S'1'
S'-100.0'
S'100000.0'
S'0.392156862745'
S'0'
S'0'
S'0'
S'Solar'
S'Main'
S'0'
S'99'
tp302
a(S'558'
S'496'
S'New Line'
S''
S'units'
S'1'
S'-100.0'
S'100000.0'
S'1.0'
S'0'
S'0'
S'0'
S'MenuItms'
S'Main'
S'0'
S'99'
tp303
a(S'16'
S'15'
S'OCP SD'
S''
S'amps'
S'2'
S'-100.0'
S'100000.0'
S'0.00697544642857'
S'0'
S'0'
S'0'
S'Short Prot'
S'Cal Items'
S'1'
S'6'
tp304
a(S'18'
S'17'
S'OCP SD TIM'
S''
S'minutes'
S'2'
S'-100.0'
S'100000.0'
S'0.00026665'
S'0'
S'0'
S'0'
S'Short Prot'
S'Cal Items'
S'1'
S'6'
tp305
a(S'15'
S'14'
S'OCT1'
S''
S'seconds'
S'2'
S'-100.0'
S'100000.0'
S'0.015999'
S'0'
S'0'
S'0'
S'Short Prot'
S'Cal Items'
S'1'
S'6'
tp306
a(S'17'
S'16'
S'OCT2'
S''
S'minutes'
S'2'
S'-100.0'
S'100000.0'
S'0.00026665'
S'0'
S'0'
S'0'
S'Short Prot'
S'Cal Items'
S'1'
S'6'
tp307
a(S'606'
S'544'
S'Off Cyc'
S''
S'units'
S'1'
S'-100.0'
S'100000.0'
S'0.015999'
S'0'
S'1'
S'0'
S'DISC INPUTs'
S'Main'
S'0'
S'99'
tp308
a(S'679'
S'617'
S'Oil Level'
S''
S'units'
S'1'
S'-100.0'
S'100000.0'
S'1.0'
S'0'
S'0'
S'0'
S'J1939 Rx'
S'Main'
S'0'
S'99'
tp309
a(S'680'
S'618'
S'Oil Pressur'
S''
S'units'
S'1'
S'-100.0'
S'100000.0'
S'1.0'
S'0'
S'0'
S'0'
S'J1939 Rx'
S'Main'
S'0'
S'99'
tp310
a(S'672'
S'610'
S'OilLevel'
S''
S'units'
S'1'
S'-100.0'
S'100000.0'
S'1.0'
S'0'
S'0'
S'0'
S'J1939 Tx'
S'Main'
S'0'
S'99'
tp311
a(S'673'
S'611'
S'OilPressure'
S''
S'units'
S'1'
S'-100.0'
S'100000.0'
S'1.0'
S'0'
S'0'
S'0'
S'J1939 Tx'
S'Main'
S'0'
S'99'
tp312
a(S'671'
S'609'
S'OilTemp'
S''
S'units'
S'1'
S'-100.0'
S'100000.0'
S'1.0'
S'0'
S'0'
S'0'
S'J1939 Tx'
S'Main'
S'0'
S'99'
tp313
a(S'605'
S'543'
S'On Cyc'
S''
S'seconds'
S'1'
S'-100.0'
S'100000.0'
S'0.015999'
S'0'
S'1'
S'0'
S'DISC INPUTs'
S'Main'
S'0'
S'99'
tp314
a(S'668'
S'606'
S'OpState'
S''
S'units'
S'1'
S'-100.0'
S'100000.0'
S'1.0'
S'0'
S'0'
S'0'
S'J1939 Tx'
S'Main'
S'0'
S'99'
tp315
a(S'40'
S'39'
S'Oun En 17-24'
S''
S'units'
S'1'
S'-100.0'
S'100000.0'
S'1.0'
S'0'
S'0'
S'0'
S'IO Config'
S'Cal Items'
S'1'
S'6'
tp316
a(S'435'
S'434'
S'Out 0'
S''
S'Duty'
S'1'
S'-100.0'
S'100000.0'
S'0.392156862745'
S'0'
S'0'
S'0'
S'Modulate'
S'Solar'
S'1'
S'6'
tp317
a(S'437'
S'436'
S'Out 1'
S''
S'Duty'
S'1'
S'-100.0'
S'100000.0'
S'0.392156862745'
S'0'
S'0'
S'0'
S'Modulate'
S'Solar'
S'1'
S'6'
tp318
a(S'439'
S'438'
S'Out 2'
S''
S'Duty'
S'1'
S'-100.0'
S'100000.0'
S'0.392156862745'
S'0'
S'0'
S'0'
S'Modulate'
S'Solar'
S'1'
S'6'
tp319
a(S'441'
S'440'
S'Out 3'
S''
S'Duty'
S'1'
S'-100.0'
S'100000.0'
S'0.392156862745'
S'0'
S'0'
S'0'
S'Modulate'
S'Solar'
S'1'
S'6'
tp320
a(S'443'
S'442'
S'Out 4'
S''
S'Duty'
S'1'
S'-100.0'
S'100000.0'
S'0.392156862745'
S'0'
S'0'
S'0'
S'Modulate'
S'Solar'
S'1'
S'6'
tp321
a(S'41'
S'40'
S'Out En 25-32'
S''
S'units'
S'1'
S'-100.0'
S'100000.0'
S'1.0'
S'0'
S'0'
S'0'
S'IO Config'
S'Cal Items'
S'1'
S'6'
tp322
a(S'39'
S'38'
S'Out En 9-16'
S''
S'units'
S'1'
S'-100.0'
S'100000.0'
S'1.0'
S'0'
S'0'
S'0'
S'IO Config'
S'Cal Items'
S'1'
S'6'
tp323
a(S'37'
S'36'
S'Out Enable'
S''
S'units'
S'1'
S'-100.0'
S'100000.0'
S'1.0'
S'0'
S'0'
S'0'
S'IO Config'
S'Cal Items'
S'1'
S'6'
tp324
a(S'62'
S'61'
S'Out Energy'
S''
S'watt'
S'1'
S'-100.0'
S'100000.0'
S'1.0'
S'0'
S'0'
S'0'
S'Output Pwr'
S'Solar'
S'1'
S'6'
tp325
a(S'47'
S'46'
S'Out Index 0'
S''
S'units'
S'1'
S'-100.0'
S'100000.0'
S'1.0'
S'0'
S'1'
S'0'
S'Sol2Hal Ot Ix'
p326
S'IO Config'
S'1'
S'6'
tp327
a(S'48'
S'47'
S'Out Index 1'
S''
S'units'
S'1'
S'-100.0'
S'100000.0'
S'1.0'
S'0'
S'1'
S'0'
S'Sol2Hal Ot Ix'
S'IO Config'
S'1'
S'6'
tp328
a(S'49'
S'48'
S'Out Index 2'
S''
S'units'
S'1'
S'-100.0'
S'100000.0'
S'1.0'
S'0'
S'1'
S'0'
S'Sol2Hal Ot Ix'
S'IO Config'
S'1'
S'6'
tp329
a(S'50'
S'49'
S'Out Index 3'
S''
S'units'
S'1'
S'-100.0'
S'100000.0'
S'1.0'
S'0'
S'1'
S'0'
S'Sol2Hal Ot Ix'
S'IO Config'
S'1'
S'6'
tp330
a(S'51'
S'50'
S'Out Index 4'
S''
S'units'
S'1'
S'-100.0'
S'100000.0'
S'1.0'
S'0'
S'1'
S'0'
S'Sol2Hal Ot Ix'
S'IO Config'
S'1'
S'6'
tp331
a(S'52'
S'51'
S'Out Index 5'
S''
S'units'
S'1'
S'-100.0'
S'100000.0'
S'1.0'
S'0'
S'1'
S'0'
S'Sol2Hal Ot Ix'
S'IO Config'
S'1'
S'6'
tp332
a(S'53'
S'52'
S'Out Index 6'
S''
S'units'
S'1'
S'-100.0'
S'100000.0'
S'1.0'
S'0'
S'1'
S'0'
S'Sol2Hal Ot Ix'
S'IO Config'
S'1'
S'6'
tp333
a(S'54'
S'53'
S'Out Index 7'
S''
S'units'
S'1'
S'-100.0'
S'100000.0'
S'1.0'
S'0'
S'1'
S'0'
S'Sol2Hal Ot Ix'
S'IO Config'
S'1'
S'6'
tp334
a(S'55'
S'54'
S'Out Index 8'
S''
S'units'
S'1'
S'-100.0'
S'100000.0'
S'1.0'
S'0'
S'1'
S'0'
S'Sol2Hal Ot Ix'
S'IO Config'
S'1'
S'6'
tp335
a(S'56'
S'55'
S'Out Index 9'
S''
S'units'
S'1'
S'-100.0'
S'100000.0'
S'1.0'
S'0'
S'1'
S'0'
S'Sol2Hal Ot Ix'
S'IO Config'
S'1'
S'6'
tp336
a(S'699'
S'637'
S'Out T'
S''
S'units'
S'4'
S'-100.0'
S'100000.0'
S'1.0'
S'1'
S'0'
S'0'
S'Solar'
S'Main'
S'0'
S'99'
tp337
a(S'38'
S'37'
S'Out en 1-8'
S''
S'units'
S'1'
S'-100.0'
S'100000.0'
S'1.0'
S'0'
S'0'
S'0'
S'IO Config'
S'Cal Items'
S'1'
S'6'
tp338
a(S'418'
S'417'
S'OutId'
S''
S'ID'
S'1'
S'-100.0'
S'100000.0'
S'1.0'
S'0'
S'0'
S'0'
S'ENG Monitor'
S'Solar'
S'1'
S'6'
tp339
a(S'46'
S'45'
S'Output index'
S''
S'units'
S'1'
S'-100.0'
S'100000.0'
S'1.0'
S'0'
S'1'
S'0'
S'Sol2Hal Ot Ix'
S'IO Config'
S'1'
S'6'
tp340
a(S'687'
S'625'
S'Outs'
S''
S'units'
S'2'
S'-100.0'
S'100000.0'
S'1.0'
S'0'
S'0'
S'1'
S'Solar'
S'Main'
S'0'
S'99'
tp341
a(S'89'
S'88'
S'Ovh Hyst 0'
S''
S'deg f'
S'1'
S'-100.0'
S'100000.0'
S'1.0'
S'0'
S'0'
S'0'
S'Stores 1-2'
S'Solar'
S'1'
S'6'
tp342
a(S'120'
S'119'
S'Ovh Hyst 1'
S''
S'deg f'
S'1'
S'-100.0'
S'100000.0'
S'1.0'
S'0'
S'0'
S'0'
S'Stores 1-2'
S'Solar'
S'1'
S'6'
tp343
a(S'151'
S'150'
S'Ovh Hyst 2'
S''
S'deg f'
S'1'
S'-100.0'
S'100000.0'
S'1.0'
S'0'
S'0'
S'0'
S'Stores 3-4'
S'Solar'
S'1'
S'6'
tp344
a(S'182'
S'181'
S'Ovh Hyst 3'
S''
S'deg f'
S'1'
S'-100.0'
S'100000.0'
S'1.0'
S'0'
S'0'
S'0'
S'Stores 3-4'
S'Solar'
S'1'
S'6'
tp345
a(S'88'
S'87'
S'Ovh Tmp 0'
S''
S'deg f'
S'1'
S'-100.0'
S'100000.0'
S'1.0'
S'0'
S'0'
S'0'
S'Stores 1-2'
S'Solar'
S'1'
S'6'
tp346
a(S'119'
S'118'
S'Ovh Tmp 1'
S''
S'deg f'
S'1'
S'-100.0'
S'100000.0'
S'1.0'
S'0'
S'0'
S'0'
S'Stores 1-2'
S'Solar'
S'1'
S'6'
tp347
a(S'150'
S'149'
S'Ovh Tmp 2'
S''
S'deg f'
S'1'
S'-100.0'
S'100000.0'
S'1.0'
S'0'
S'0'
S'0'
S'Stores 3-4'
S'Solar'
S'1'
S'6'
tp348
a(S'181'
S'180'
S'Ovh Tmp 3'
S''
S'deg f'
S'1'
S'-100.0'
S'100000.0'
S'1.0'
S'0'
S'0'
S'0'
S'Stores 3-4'
S'Solar'
S'1'
S'6'
tp349
a(S'82'
S'81'
S'Ovh ix 0'
S''
S'index'
S'1'
S'-100.0'
S'100000.0'
S'1.0'
S'0'
S'0'
S'0'
S'Stores 1-2'
S'Solar'
S'1'
S'6'
tp350
a(S'113'
S'112'
S'Ovh ix 1'
S''
S'index'
S'1'
S'-100.0'
S'100000.0'
S'1.0'
S'0'
S'0'
S'0'
S'Stores 1-2'
S'Solar'
S'1'
S'6'
tp351
a(S'144'
S'143'
S'Ovh ix 2'
S''
S'index'
S'1'
S'-100.0'
S'100000.0'
S'1.0'
S'0'
S'0'
S'0'
S'Stores 3-4'
S'Solar'
S'1'
S'6'
tp352
a(S'175'
S'174'
S'Ovh ix 3'
S''
S'index'
S'1'
S'-100.0'
S'100000.0'
S'1.0'
S'0'
S'0'
S'0'
S'Stores 3-4'
S'Solar'
S'1'
S'6'
tp353
a(S'573'
S'511'
S'P% ON'
S''
S'seconds'
S'2'
S'-100.0'
S'100000.0'
S'3.125e-08'
S'0'
S'0'
S'0'
S'PWM_Paramet'
S'var_info'
S'0'
S'99'
tp354
a(S'706'
S'644'
S'P0'
S''
S'units'
S'1'
S'-100.0'
S'100000.0'
S'1.0'
S'0'
S'0'
S'1'
S'Tanks'
S'Solar'
S'0'
S'99'
tp355
a(S'713'
S'651'
S'P1'
S''
S'units'
S'1'
S'-100.0'
S'100000.0'
S'1.0'
S'0'
S'0'
S'1'
S'Tanks'
S'Solar'
S'0'
S'99'
tp356
a(S'770'
S'708'
S'P1'
S''
S'units'
S'4'
S'-100.0'
S'100000.0'
S'1.0'
S'1'
S'0'
S'0'
S'Pots'
S'P1'
S'0'
S'99'
tp357
a(S'720'
S'658'
S'P2'
S''
S'units'
S'1'
S'-100.0'
S'100000.0'
S'1.0'
S'0'
S'0'
S'1'
S'Tanks'
S'Solar'
S'0'
S'99'
tp358
a(S'771'
S'709'
S'P2'
S''
S'units'
S'4'
S'-100.0'
S'100000.0'
S'1.0'
S'1'
S'0'
S'0'
S'Pots'
S'P1'
S'0'
S'99'
tp359
a(S'84'
S'83'
S'P2 Dly Off 0'
S''
S'sec'
S'1'
S'-100.0'
S'100000.0'
S'1.0'
S'0'
S'0'
S'0'
S'Stores 1-2'
S'Solar'
S'1'
S'6'
tp360
a(S'115'
S'114'
S'P2 Dly Off 1'
S''
S'sec'
S'1'
S'-100.0'
S'100000.0'
S'1.0'
S'0'
S'0'
S'0'
S'Stores 1-2'
S'Solar'
S'1'
S'6'
tp361
a(S'146'
S'145'
S'P2 Dly Off 2'
S''
S'sec'
S'1'
S'-100.0'
S'100000.0'
S'1.0'
S'0'
S'0'
S'0'
S'Stores 3-4'
S'Solar'
S'1'
S'6'
tp362
a(S'177'
S'176'
S'P2 Dly Off 3'
S''
S'sec'
S'1'
S'-100.0'
S'100000.0'
S'1.0'
S'0'
S'0'
S'0'
S'Stores 3-4'
S'Solar'
S'1'
S'6'
tp363
a(S'83'
S'82'
S'P2 Dly On 0'
S''
S'sec'
S'1'
S'-100.0'
S'100000.0'
S'1.0'
S'0'
S'0'
S'0'
S'Stores 1-2'
S'Solar'
S'1'
S'6'
tp364
a(S'114'
S'113'
S'P2 Dly On 1'
S''
S'sec'
S'1'
S'-100.0'
S'100000.0'
S'1.0'
S'0'
S'0'
S'0'
S'Stores 1-2'
S'Solar'
S'1'
S'6'
tp365
a(S'145'
S'144'
S'P2 Dly On 2'
S''
S'sec'
S'1'
S'-100.0'
S'100000.0'
S'1.0'
S'0'
S'0'
S'0'
S'Stores 3-4'
S'Solar'
S'1'
S'6'
tp366
a(S'176'
S'175'
S'P2 Dly On 3'
S''
S'sec'
S'1'
S'-100.0'
S'100000.0'
S'1.0'
S'0'
S'0'
S'0'
S'Stores 3-4'
S'Solar'
S'1'
S'6'
tp367
a(S'727'
S'665'
S'P3'
S''
S'units'
S'1'
S'-100.0'
S'100000.0'
S'1.0'
S'0'
S'0'
S'0'
S'Tanks'
S'Solar'
S'0'
S'99'
tp368
a(S'772'
S'710'
S'P3'
S''
S'units'
S'4'
S'-100.0'
S'100000.0'
S'1.0'
S'1'
S'0'
S'0'
S'Pots'
S'P1'
S'0'
S'99'
tp369
a(S'773'
S'711'
S'P4'
S''
S'units'
S'4'
S'-100.0'
S'100000.0'
S'1.0'
S'1'
S'0'
S'0'
S'Pots'
S'P1'
S'0'
S'99'
tp370
a(S'774'
S'712'
S'P5'
S''
S'units'
S'4'
S'-100.0'
S'100000.0'
S'1.0'
S'1'
S'0'
S'0'
S'Pots'
S'P1'
S'0'
S'99'
tp371
a(S'775'
S'713'
S'P6'
S''
S'units'
S'4'
S'-100.0'
S'100000.0'
S'1.0'
S'1'
S'0'
S'0'
S'Pots'
S'P1'
S'0'
S'99'
tp372
a(S'776'
S'714'
S'P7'
S''
S'units'
S'4'
S'-100.0'
S'100000.0'
S'1.0'
S'1'
S'0'
S'0'
S'Pots'
S'P1'
S'0'
S'99'
tp373
a(S'643'
S'581'
S'PART Rv Tth'
S''
S'units'
S'4'
S'-100.0'
S'100000.0'
S'1.0'
S'0'
S'0'
S'0'
S'InputISR'
S'Main'
S'0'
S'99'
tp374
a(S'8'
S'7'
S'PID_DIVISOR'
S''
S'Sec'
S'1'
S'-100.0'
S'100000.0'
S'0.001'
S'0'
S'0'
S'0'
S'Cal CPU Cfg'
p375
S'Cal Items'
S'1'
S'6'
tp376
a(S'519'
S'457'
S'PLL Div'
S''
S'units'
S'1'
S'-100.0'
S'100000.0'
S'1.0'
S'0'
S'0'
S'0'
S'CPU'
S'Main'
S'0'
S'99'
tp377
a(S'518'
S'456'
S'PLL Mult'
S''
S'units'
S'1'
S'-100.0'
S'100000.0'
S'1.0'
S'0'
S'0'
S'0'
S'CPU'
S'Main'
S'0'
S'99'
tp378
a(S'537'
S'475'
S'PMM WT'
S''
S'mS'
S'1'
S'-100.0'
S'100000.0'
S'1.0'
S'0'
S'0'
S'0'
S'Tasks'
S'Main'
S'0'
S'99'
tp379
a(S'758'
S'696'
S'POT 1 '
S''
S'units'
S'2'
S'-100.0'
S'100000.0'
S'1.0'
S'0'
S'0'
S'0'
S'Pots 10 bit'
S'Main'
S'0'
S'99'
tp380
a(S'759'
S'697'
S'POT 2'
S''
S'units'
S'2'
S'-100.0'
S'100000.0'
S'1.0'
S'0'
S'0'
S'0'
S'Pots 10 bit'
S'Main'
S'0'
S'99'
tp381
a(S'760'
S'698'
S'POT 3'
S''
S'units'
S'2'
S'-100.0'
S'100000.0'
S'1.0'
S'0'
S'0'
S'0'
S'Pots 10 bit'
S'Main'
S'0'
S'99'
tp382
a(S'761'
S'699'
S'POT 4'
S''
S'units'
S'2'
S'-100.0'
S'100000.0'
S'1.0'
S'0'
S'0'
S'0'
S'Pots 10 bit'
S'Main'
S'0'
S'99'
tp383
a(S'762'
S'700'
S'POT 5'
S''
S'units'
S'2'
S'-100.0'
S'100000.0'
S'1.0'
S'0'
S'0'
S'0'
S'Pots 10 bit'
S'Main'
S'0'
S'99'
tp384
a(S'763'
S'701'
S'POT 6'
S''
S'units'
S'2'
S'-100.0'
S'100000.0'
S'1.0'
S'0'
S'0'
S'0'
S'Pots 10 bit'
S'Main'
S'0'
S'99'
tp385
a(S'764'
S'702'
S'POT 7'
S''
S'units'
S'2'
S'-100.0'
S'100000.0'
S'1.0'
S'0'
S'0'
S'0'
S'Pots 10 bit'
S'Main'
S'0'
S'99'
tp386
a(S'625'
S'563'
S'PPR'
S''
S'units'
S'2'
S'-100.0'
S'100000.0'
S'1.0'
S'0'
S'0'
S'0'
S'InputISR'
S'Main'
S'0'
S'99'
tp387
a(S'536'
S'474'
S'PV NM WT'
S''
S'mS'
S'1'
S'-100.0'
S'100000.0'
S'1.0'
S'0'
S'0'
S'0'
S'Tasks'
S'Main'
S'0'
S'99'
tp388
a(S'767'
S'705'
S'PW %'
S''
S'%'
S'1'
S'-100.0'
S'100000.0'
S'1.0'
S'0'
S'0'
S'0'
S'UserDiag'
S'Speed'
S'0'
S'99'
tp389
a(S'572'
S'510'
S'PWM %'
S''
S'%'
S'2'
S'-100.0'
S'100000.0'
S'0.00152590218967'
S'0'
S'0'
S'0'
S'PWM_Paramet'
S'var_info'
S'0'
S'99'
tp390
a(S'688'
S'626'
S'PWM Curr'
S''
S'units'
S'2'
S'-100.0'
S'100000.0'
S'1.0'
S'0'
S'0'
S'0'
S'Solar'
S'Main'
S'0'
S'99'
tp391
a(S'33'
S'32'
S'PWM Mn %'
S''
S'%'
S'2'
S'-100.0'
S'100000.0'
S'0.00152590218967'
S'0'
S'0'
S'0'
S'CAL PWM'
p392
S'Cal Items'
S'1'
S'6'
tp393
a(S'34'
S'33'
S'PWM Mx %'
S''
S'%'
S'2'
S'-100.0'
S'100000.0'
S'0.00152590218967'
S'0'
S'0'
S'0'
S'CAL PWM'
S'Cal Items'
S'1'
S'6'
tp394
a(S'30'
S'29'
S'PWM PERIOD'
S''
S'cycles'
S'2'
S'-100.0'
S'100000.0'
S'1.0'
S'0'
S'0'
S'0'
S'CAL PWM'
S'Cal Items'
S'1'
S'6'
tp395
a(S'32'
S'31'
S'PWM2 max C'
S''
S'cycles'
S'2'
S'-100.0'
S'100000.0'
S'1.0'
S'0'
S'0'
S'0'
S'CAL PWM'
S'Cal Items'
S'1'
S'6'
tp396
a(S'31'
S'30'
S'PWM2 min C'
S''
S'cycles'
S'2'
S'-100.0'
S'100000.0'
S'1.0'
S'0'
S'0'
S'0'
S'CAL PWM'
S'Cal Items'
S'1'
S'6'
tp397
a(S'580'
S'518'
S'PWMf'
S''
S'%'
S'2'
S'-100.0'
S'100000.0'
S'0.00152590218967'
S'0'
S'0'
S'0'
S'PWM_Paramet'
S'var_info'
S'0'
S'99'
tp398
a(S'208'
S'207'
S'Par Gnd S0'
S''
S'units'
S'4'
S'-100.0'
S'100000.0'
S'1.0'
S'0'
S'0'
S'0'
S'SensorCal'
S'Solar'
S'1'
S'6'
tp399
a(S'218'
S'217'
S'Par Gnd S1'
S''
S'units'
S'4'
S'-100.0'
S'100000.0'
S'1.0'
S'0'
S'0'
S'0'
S'SensorCal'
S'Solar'
S'1'
S'6'
tp400
a(S'227'
S'226'
S'Par Gnd S2'
S''
S'units'
S'4'
S'-100.0'
S'100000.0'
S'1.0'
S'0'
S'0'
S'0'
S'SensorCal'
S'Solar'
S'1'
S'6'
tp401
a(S'236'
S'235'
S'Par Gnd S3'
S''
S'units'
S'4'
S'-100.0'
S'100000.0'
S'1.0'
S'0'
S'0'
S'0'
S'SensorCal'
S'Solar'
S'1'
S'6'
tp402
a(S'245'
S'244'
S'Par Gnd S4'
S''
S'units'
S'4'
S'-100.0'
S'100000.0'
S'1.0'
S'0'
S'0'
S'0'
S'SensorCal'
S'Solar'
S'1'
S'6'
tp403
a(S'254'
S'253'
S'Par Gnd S5'
S''
S'units'
S'4'
S'-100.0'
S'100000.0'
S'1.0'
S'0'
S'0'
S'0'
S'SensorCal'
S'Solar'
S'1'
S'6'
tp404
a(S'263'
S'262'
S'Par Gnd S7'
S''
S'units'
S'4'
S'-100.0'
S'100000.0'
S'1.0'
S'0'
S'0'
S'0'
S'SensorCal'
S'Solar'
S'1'
S'6'
tp405
a(S'272'
S'271'
S'Par Gnd S8'
S''
S'units'
S'4'
S'-100.0'
S'100000.0'
S'1.0'
S'0'
S'0'
S'0'
S'SensorCal'
S'Solar'
S'1'
S'6'
tp406
a(S'535'
S'473'
S'Parallel Pe'
S''
S'Sec'
S'1'
S'-100.0'
S'100000.0'
S'0.001'
S'0'
S'0'
S'0'
S'Tasks'
S'Main'
S'0'
S'99'
tp407
a(S'677'
S'615'
S'Pedal Pos'
S''
S'units'
S'1'
S'-100.0'
S'100000.0'
S'1.0'
S'0'
S'0'
S'0'
S'J1939 Rx'
S'Main'
S'0'
S'99'
tp408
a(S'433'
S'432'
S'Period'
S''
S'minutes'
S'1'
S'-100.0'
S'100000.0'
S'0.0162760416667'
S'0'
S'0'
S'0'
S'Modulate'
S'Solar'
S'1'
S'6'
tp409
a(S'583'
S'521'
S'Period'
S''
S'time'
S'4'
S'-100.0'
S'100000.0'
S'1.0'
S'0'
S'0'
S'0'
S'ProgramVari'
S'var_info'
S'0'
S'99'
tp410
a(S'80'
S'79'
S'Pmp 1 ix 0'
S''
S'index'
S'1'
S'-100.0'
S'100000.0'
S'1.0'
S'0'
S'0'
S'0'
S'Stores 1-2'
S'Solar'
S'1'
S'6'
tp411
a(S'111'
S'110'
S'Pmp 1 ix 1'
S''
S'index'
S'1'
S'-100.0'
S'100000.0'
S'1.0'
S'0'
S'0'
S'0'
S'Stores 1-2'
S'Solar'
S'1'
S'6'
tp412
a(S'142'
S'141'
S'Pmp 1 ix 2'
S''
S'index'
S'1'
S'-100.0'
S'100000.0'
S'1.0'
S'0'
S'0'
S'0'
S'Stores 3-4'
S'Solar'
S'1'
S'6'
tp413
a(S'173'
S'172'
S'Pmp 1 ix 3'
S''
S'index'
S'1'
S'-100.0'
S'100000.0'
S'1.0'
S'0'
S'0'
S'0'
S'Stores 3-4'
S'Solar'
S'1'
S'6'
tp414
a(S'81'
S'80'
S'Pmp 2 ix 0'
S''
S'index'
S'1'
S'-100.0'
S'100000.0'
S'1.0'
S'0'
S'0'
S'0'
S'Stores 1-2'
S'Solar'
S'1'
S'6'
tp415
a(S'112'
S'111'
S'Pmp 2 ix 1'
S''
S'index'
S'1'
S'-100.0'
S'100000.0'
S'1.0'
S'0'
S'0'
S'0'
S'Stores 1-2'
S'Solar'
S'1'
S'6'
tp416
a(S'143'
S'142'
S'Pmp 2 ix 2'
S''
S'index'
S'1'
S'-100.0'
S'100000.0'
S'1.0'
S'0'
S'0'
S'0'
S'Stores 3-4'
S'Solar'
S'1'
S'6'
tp417
a(S'174'
S'173'
S'Pmp 2 ix 3'
S''
S'index'
S'1'
S'-100.0'
S'100000.0'
S'1.0'
S'0'
S'0'
S'0'
S'Stores 3-4'
S'Solar'
S'1'
S'6'
tp418
a(S'694'
S'632'
S'PosEgy'
S''
S'units'
S'4'
S'-100.0'
S'100000.0'
S'1.0'
S'1'
S'0'
S'0'
S'Solar'
S'Main'
S'0'
S'99'
tp419
a(S'620'
S'558'
S'Power Sec'
S''
S'seconds'
S'4'
S'-100.0'
S'100000.0'
S'1.0'
S'0'
S'0'
S'0'
S'Hourmeter'
S'Main'
S'0'
S'99'
tp420
a(S'93'
S'92'
S'Pr Tmp 0 0'
S''
S'Deg F'
S'1'
S'-100.0'
S'100000.0'
S'1.0'
S'0'
S'0'
S'0'
S'Stores 1-2'
S'Solar'
S'1'
S'6'
tp421
a(S'124'
S'123'
S'Pr Tmp 0 1'
S''
S'Deg F'
S'1'
S'-100.0'
S'100000.0'
S'1.0'
S'0'
S'0'
S'0'
S'Stores 1-2'
S'Solar'
S'1'
S'6'
tp422
a(S'155'
S'154'
S'Pr Tmp 0 2'
S''
S'Deg F'
S'1'
S'-100.0'
S'100000.0'
S'1.0'
S'0'
S'0'
S'0'
S'Stores 3-4'
S'Solar'
S'1'
S'6'
tp423
a(S'186'
S'185'
S'Pr Tmp 0 3'
S''
S'Deg F'
S'1'
S'-100.0'
S'100000.0'
S'1.0'
S'0'
S'0'
S'0'
S'Stores 3-4'
S'Solar'
S'1'
S'6'
tp424
a(S'94'
S'93'
S'Pr Tmp 1 0'
S''
S'Deg F'
S'1'
S'-100.0'
S'100000.0'
S'1.0'
S'0'
S'0'
S'0'
S'Stores 1-2'
S'Solar'
S'1'
S'6'
tp425
a(S'125'
S'124'
S'Pr Tmp 1 1'
S''
S'Deg F'
S'1'
S'-100.0'
S'100000.0'
S'1.0'
S'0'
S'0'
S'0'
S'Stores 1-2'
S'Solar'
S'1'
S'6'
tp426
a(S'156'
S'155'
S'Pr Tmp 1 2'
S''
S'Deg F'
S'1'
S'-100.0'
S'100000.0'
S'1.0'
S'0'
S'0'
S'0'
S'Stores 3-4'
S'Solar'
S'1'
S'6'
tp427
a(S'187'
S'186'
S'Pr Tmp 1 3'
S''
S'Deg F'
S'1'
S'-100.0'
S'100000.0'
S'1.0'
S'0'
S'0'
S'0'
S'Stores 3-4'
S'Solar'
S'1'
S'6'
tp428
a(S'95'
S'94'
S'Pr Tmp 2 0'
S''
S'Deg F'
S'1'
S'-100.0'
S'100000.0'
S'1.0'
S'0'
S'0'
S'0'
S'Stores 1-2'
S'Solar'
S'1'
S'6'
tp429
a(S'126'
S'125'
S'Pr Tmp 2 1'
S''
S'Deg F'
S'1'
S'-100.0'
S'100000.0'
S'1.0'
S'0'
S'0'
S'0'
S'Stores 1-2'
S'Solar'
S'1'
S'6'
tp430
a(S'157'
S'156'
S'Pr Tmp 2 2'
S''
S'Deg F'
S'1'
S'-100.0'
S'100000.0'
S'1.0'
S'0'
S'0'
S'0'
S'Stores 3-4'
S'Solar'
S'1'
S'6'
tp431
a(S'188'
S'187'
S'Pr Tmp 2 3'
S''
S'Deg F'
S'1'
S'-100.0'
S'100000.0'
S'1.0'
S'0'
S'0'
S'0'
S'Stores 3-4'
S'Solar'
S'1'
S'6'
tp432
a(S'96'
S'95'
S'Pr Tmp 3 0'
S''
S'Deg F'
S'1'
S'-100.0'
S'100000.0'
S'1.0'
S'0'
S'0'
S'0'
S'Stores 1-2'
S'Solar'
S'1'
S'6'
tp433
a(S'127'
S'126'
S'Pr Tmp 3 1'
S''
S'Deg F'
S'1'
S'-100.0'
S'100000.0'
S'1.0'
S'0'
S'0'
S'0'
S'Stores 1-2'
S'Solar'
S'1'
S'6'
tp434
a(S'158'
S'157'
S'Pr Tmp 3 2'
S''
S'Deg F'
S'1'
S'-100.0'
S'100000.0'
S'1.0'
S'0'
S'0'
S'0'
S'Stores 3-4'
S'Solar'
S'1'
S'6'
tp435
a(S'189'
S'188'
S'Pr Tmp 3 3'
S''
S'Deg F'
S'1'
S'-100.0'
S'100000.0'
S'1.0'
S'0'
S'0'
S'0'
S'Stores 3-4'
S'Solar'
S'1'
S'6'
tp436
a(S'97'
S'96'
S'Pr Tmp 4 0'
S''
S'Deg F'
S'1'
S'-100.0'
S'100000.0'
S'1.0'
S'0'
S'0'
S'0'
S'Stores 1-2'
S'Solar'
S'1'
S'6'
tp437
a(S'128'
S'127'
S'Pr Tmp 4 1'
S''
S'Deg F'
S'1'
S'-100.0'
S'100000.0'
S'1.0'
S'0'
S'0'
S'0'
S'Stores 1-2'
S'Solar'
S'1'
S'6'
tp438
a(S'159'
S'158'
S'Pr Tmp 4 2'
S''
S'Deg F'
S'1'
S'-100.0'
S'100000.0'
S'1.0'
S'0'
S'0'
S'0'
S'Stores 3-4'
S'Solar'
S'1'
S'6'
tp439
a(S'190'
S'189'
S'Pr Tmp 4 3'
S''
S'Deg F'
S'1'
S'-100.0'
S'100000.0'
S'1.0'
S'0'
S'0'
S'0'
S'Stores 3-4'
S'Solar'
S'1'
S'6'
tp440
a(S'98'
S'97'
S'Pr Tmp 5 0'
S''
S'Deg F'
S'1'
S'-100.0'
S'100000.0'
S'1.0'
S'0'
S'0'
S'0'
S'Stores 1-2'
S'Solar'
S'1'
S'6'
tp441
a(S'129'
S'128'
S'Pr Tmp 5 1'
S''
S'Deg F'
S'1'
S'-100.0'
S'100000.0'
S'1.0'
S'0'
S'0'
S'0'
S'Stores 1-2'
S'Solar'
S'1'
S'6'
tp442
a(S'160'
S'159'
S'Pr Tmp 5 2'
S''
S'Deg F'
S'1'
S'-100.0'
S'100000.0'
S'1.0'
S'0'
S'0'
S'0'
S'Stores 3-4'
S'Solar'
S'1'
S'6'
tp443
a(S'191'
S'190'
S'Pr Tmp 5 3'
S''
S'Deg F'
S'1'
S'-100.0'
S'100000.0'
S'1.0'
S'0'
S'0'
S'0'
S'Stores 3-4'
S'Solar'
S'1'
S'6'
tp444
a(S'99'
S'98'
S'Pr Tmp 6 0'
S''
S'Deg F'
S'1'
S'-100.0'
S'100000.0'
S'1.0'
S'0'
S'0'
S'0'
S'Stores 1-2'
S'Solar'
S'1'
S'6'
tp445
a(S'130'
S'129'
S'Pr Tmp 6 1'
S''
S'Deg F'
S'1'
S'-100.0'
S'100000.0'
S'1.0'
S'0'
S'0'
S'0'
S'Stores 1-2'
S'Solar'
S'1'
S'6'
tp446
a(S'161'
S'160'
S'Pr Tmp 6 2'
S''
S'Deg F'
S'1'
S'-100.0'
S'100000.0'
S'1.0'
S'0'
S'0'
S'0'
S'Stores 3-4'
S'Solar'
S'1'
S'6'
tp447
a(S'192'
S'191'
S'Pr Tmp 6 3'
S''
S'Deg F'
S'1'
S'-100.0'
S'100000.0'
S'1.0'
S'0'
S'0'
S'0'
S'Stores 3-4'
S'Solar'
S'1'
S'6'
tp448
a(S'9'
S'8'
S'Preset #'
S''
S'units'
S'1'
S'-100.0'
S'100000.0'
S'1.0'
S'0'
S'0'
S'0'
S'Adjust Confg'
p449
S'Cal Items'
S'1'
S'6'
tp450
a(S'633'
S'571'
S'Prev Der Tm'
S''
S'units'
S'4'
S'-100.0'
S'100000.0'
S'1.0'
S'0'
S'0'
S'0'
S'InputISR'
S'Main'
S'0'
S'99'
tp451
a(S'523'
S'461'
S'Prg Prty'
S''
S'units'
S'1'
S'-100.0'
S'100000.0'
S'1.0'
S'0'
S'0'
S'0'
S'Tasks'
S'Main'
S'0'
S'99'
tp452
a(S'564'
S'502'
S'Product ID'
S''
S'units'
S'2'
S'0.0'
S'255.0'
S'1.0'
S'0'
S'0'
S'0'
S'MenuItms'
S'Main'
S'0'
S'99'
tp453
a(S'624'
S'562'
S'Prv Ctr'
S''
S'units'
S'4'
S'-100.0'
S'100000.0'
S'1.0'
S'0'
S'0'
S'0'
S'InputISR'
S'Main'
S'0'
S'99'
tp454
a(S'23'
S'22'
S'Pulses Rev'
S''
S'units'
S'2'
S'-100.0'
S'100000.0'
S'1.0'
S'0'
S'0'
S'0'
S'Speed Inpt'
S'Cal Items'
S'1'
S'6'
tp455
a(S'684'
S'622'
S'Pump Cmd'
S''
S'units'
S'1'
S'-100.0'
S'100000.0'
S'1.0'
S'0'
S'0'
S'1'
S'Solar'
S'Main'
S'0'
S'99'
tp456
a(S'697'
S'635'
S'Pwr'
S''
S'units'
S'4'
S'-100.0'
S'100000.0'
S'1.0'
S'1'
S'0'
S'0'
S'Solar'
S'Main'
S'0'
S'99'
tp457
a(S'63'
S'62'
S'Pwr Out 0'
S''
S'watt'
S'1'
S'-100.0'
S'100000.0'
S'1.0'
S'0'
S'0'
S'0'
S'Output Pwr'
S'Solar'
S'1'
S'6'
tp458
a(S'64'
S'63'
S'Pwr Out 1'
S''
S'watt'
S'1'
S'-100.0'
S'100000.0'
S'1.0'
S'0'
S'0'
S'0'
S'Output Pwr'
S'Solar'
S'1'
S'6'
tp459
a(S'65'
S'64'
S'Pwr Out 2'
S''
S'watt'
S'1'
S'-100.0'
S'100000.0'
S'1.0'
S'0'
S'0'
S'0'
S'Output Pwr'
S'Solar'
S'1'
S'6'
tp460
a(S'66'
S'65'
S'Pwr Out 3'
S''
S'watt'
S'1'
S'-100.0'
S'100000.0'
S'1.0'
S'0'
S'0'
S'0'
S'Output Pwr'
S'Solar'
S'1'
S'6'
tp461
a(S'67'
S'66'
S'Pwr Out 4'
S''
S'watt'
S'1'
S'-100.0'
S'100000.0'
S'1.0'
S'0'
S'0'
S'0'
S'Output Pwr'
S'Solar'
S'1'
S'6'
tp462
a(S'68'
S'67'
S'Pwr Out 5'
S''
S'watt'
S'1'
S'-100.0'
S'100000.0'
S'1.0'
S'0'
S'0'
S'0'
S'Output Pwr'
S'Solar'
S'1'
S'6'
tp463
a(S'69'
S'68'
S'Pwr Out 6'
S''
S'watt'
S'1'
S'-100.0'
S'100000.0'
S'1.0'
S'0'
S'0'
S'0'
S'Output Pwr'
S'Solar'
S'1'
S'6'
tp464
a(S'70'
S'69'
S'Pwr Out 7'
S''
S'watt'
S'1'
S'-100.0'
S'100000.0'
S'1.0'
S'0'
S'0'
S'0'
S'Output Pwr'
S'Solar'
S'1'
S'6'
tp465
a(S'71'
S'70'
S'Pwr Out 8'
S''
S'watt'
S'1'
S'-100.0'
S'100000.0'
S'1.0'
S'0'
S'0'
S'0'
S'Output Pwr'
S'Solar'
S'1'
S'6'
tp466
a(S'72'
S'71'
S'Pwr Out 9'
S''
S'watt'
S'1'
S'-100.0'
S'100000.0'
S'1.0'
S'0'
S'0'
S'0'
S'Output Pwr'
S'Solar'
S'1'
S'6'
tp467
a(S'619'
S'557'
S'Pwr T'
S''
S'seconds'
S'4'
S'-100.0'
S'100000.0'
S'1.0'
S'0'
S'0'
S'0'
S'Hourmeter'
S'Main'
S'0'
S'99'
tp468
a(S'214'
S'213'
S'R wire S0'
S''
S'ohms'
S'4'
S'-100.0'
S'100000.0'
S'1.0'
S'1'
S'0'
S'0'
S'SensorCal'
S'Solar'
S'1'
S'6'
tp469
a(S'224'
S'223'
S'R wire S1'
S''
S'ohms'
S'4'
S'-100.0'
S'100000.0'
S'1.0'
S'1'
S'0'
S'0'
S'SensorCal'
S'Solar'
S'1'
S'6'
tp470
a(S'233'
S'232'
S'R wire S2'
S''
S'ohms'
S'4'
S'-100.0'
S'100000.0'
S'1.0'
S'1'
S'0'
S'0'
S'SensorCal'
S'Solar'
S'1'
S'6'
tp471
a(S'242'
S'241'
S'R wire S3'
S''
S'ohms'
S'4'
S'-100.0'
S'100000.0'
S'1.0'
S'1'
S'0'
S'0'
S'SensorCal'
S'Solar'
S'1'
S'6'
tp472
a(S'251'
S'250'
S'R wire S4'
S''
S'ohms'
S'4'
S'-100.0'
S'100000.0'
S'1.0'
S'1'
S'0'
S'0'
S'SensorCal'
S'Solar'
S'1'
S'6'
tp473
a(S'260'
S'259'
S'R wire S5'
S''
S'ohms'
S'4'
S'-100.0'
S'100000.0'
S'1.0'
S'1'
S'0'
S'0'
S'SensorCal'
S'Solar'
S'1'
S'6'
tp474
a(S'269'
S'268'
S'R wire S7'
S''
S'ohms'
S'4'
S'-100.0'
S'100000.0'
S'1.0'
S'1'
S'0'
S'0'
S'SensorCal'
S'Solar'
S'1'
S'6'
tp475
a(S'278'
S'277'
S'R wire S8'
S''
S'ohms'
S'4'
S'-100.0'
S'100000.0'
S'1.0'
S'1'
S'0'
S'0'
S'SensorCal'
S'Solar'
S'1'
S'6'
tp476
a(S'555'
S'493'
S'RCT TMR LP'
S''
S'units'
S'1'
S'-100.0'
S'100000.0'
S'1.0'
S'0'
S'0'
S'0'
S'Tasks'
S'Main'
S'0'
S'99'
tp477
a(S'662'
S'600'
S'RPM'
S''
S'units'
S'2'
S'-100.0'
S'100000.0'
S'1.0'
S'0'
S'0'
S'0'
S'Gov Items'
S'Main'
S'0'
S'99'
tp478
a(S'21'
S'20'
S'RPMMin'
S''
S'units'
S'2'
S'-100.0'
S'100000.0'
S'1.0'
S'0'
S'0'
S'0'
S'Speed Inpt'
S'Cal Items'
S'1'
S'6'
tp479
a(S'36'
S'35'
S'RT 4 Stall'
S''
S'seconds'
S'2'
S'-100.0'
S'100000.0'
S'1.0'
S'0'
S'0'
S'0'
S'stall'
p480
S'Cal Items'
S'1'
S'6'
tp481
a(S'520'
S'458'
S'RTC PRSC'
S''
S'units'
S'2'
S'-100.0'
S'100000.0'
S'1.0'
S'0'
S'0'
S'0'
S'CPU'
S'Main'
S'0'
S'99'
tp482
a(S'554'
S'492'
S'RTC SEC LP'
S''
S'units'
S'1'
S'-100.0'
S'100000.0'
S'1.0'
S'0'
S'0'
S'0'
S'Tasks'
S'Main'
S'0'
S'99'
tp483
a(S'521'
S'459'
S'RTI Prty'
S''
S'units'
S'1'
S'-100.0'
S'100000.0'
S'1.0'
S'0'
S'0'
S'0'
S'Tasks'
S'Main'
S'0'
S'99'
tp484
a(S'540'
S'478'
S'RTI task'
S''
S'units'
S'4'
S'-100.0'
S'100000.0'
S'1.0'
S'0'
S'0'
S'0'
S'Tasks'
S'Main'
S'0'
S'99'
tp485
a(S'549'
S'487'
S'RTI_RUN_ENA'
S''
S'units'
S'1'
S'-100.0'
S'100000.0'
S'1.0'
S'0'
S'0'
S'0'
S'Tasks'
S'Main'
S'0'
S'99'
tp486
a(S'207'
S'206'
S'Rbottom S0'
S''
S'ohms'
S'4'
S'-100.0'
S'100000.0'
S'1.0'
S'0'
S'0'
S'0'
S'SensorCal'
S'Solar'
S'1'
S'6'
tp487
a(S'217'
S'216'
S'Rbottom S1'
S''
S'ohms'
S'4'
S'-100.0'
S'100000.0'
S'1.0'
S'0'
S'0'
S'0'
S'SensorCal'
S'Solar'
S'1'
S'6'
tp488
a(S'226'
S'225'
S'Rbottom S2'
S''
S'ohms'
S'4'
S'-100.0'
S'100000.0'
S'1.0'
S'0'
S'0'
S'0'
S'SensorCal'
S'Solar'
S'1'
S'6'
tp489
a(S'235'
S'234'
S'Rbottom S3'
S''
S'ohms'
S'4'
S'-100.0'
S'100000.0'
S'1.0'
S'0'
S'0'
S'0'
S'SensorCal'
S'Solar'
S'1'
S'6'
tp490
a(S'244'
S'243'
S'Rbottom S4'
S''
S'ohms'
S'4'
S'-100.0'
S'100000.0'
S'1.0'
S'0'
S'0'
S'0'
S'SensorCal'
S'Solar'
S'1'
S'6'
tp491
a(S'253'
S'252'
S'Rbottom S5'
S''
S'ohms'
S'4'
S'-100.0'
S'100000.0'
S'1.0'
S'0'
S'0'
S'0'
S'SensorCal'
S'Solar'
S'1'
S'6'
tp492
a(S'262'
S'261'
S'Rbottom S7'
S''
S'ohms'
S'4'
S'-100.0'
S'100000.0'
S'1.0'
S'0'
S'0'
S'0'
S'SensorCal'
S'Solar'
S'1'
S'6'
tp493
a(S'271'
S'270'
S'Rbottom S8'
S''
S'ohms'
S'4'
S'-100.0'
S'100000.0'
S'1.0'
S'0'
S'0'
S'0'
S'SensorCal'
S'Solar'
S'1'
S'6'
tp494
a(S'281'
S'280'
S'Rest  0'
S''
S'units'
S'4'
S'-100.0'
S'100000.0'
S'1.0'
S'1'
S'0'
S'0'
S'cts scale'
p495
S'Temp Tbl'
S'1'
S'6'
tp496
a(S'323'
S'322'
S'Rest  0'
S''
S'units'
S'4'
S'-100.0'
S'100000.0'
S'1.0'
S'1'
S'0'
S'0'
S'iat scale'
p497
S'Temp Tbl'
S'1'
S'6'
tp498
a(S'365'
S'364'
S'Rest  0'
S''
S'units'
S'4'
S'-100.0'
S'100000.0'
S'1.0'
S'1'
S'0'
S'0'
S'Thermistor2'
p499
S'Temp Tbl'
S'1'
S'6'
tp500
a(S'283'
S'282'
S'Rest  1'
S''
S'units'
S'4'
S'-100.0'
S'100000.0'
S'1.0'
S'1'
S'0'
S'0'
S'cts scale'
S'Temp Tbl'
S'1'
S'6'
tp501
a(S'325'
S'324'
S'Rest  1'
S''
S'units'
S'4'
S'-100.0'
S'100000.0'
S'1.0'
S'1'
S'0'
S'0'
S'iat scale'
S'Temp Tbl'
S'1'
S'6'
tp502
a(S'367'
S'366'
S'Rest  1'
S''
S'units'
S'4'
S'-100.0'
S'100000.0'
S'1.0'
S'1'
S'0'
S'0'
S'Thermistor2'
S'Temp Tbl'
S'1'
S'6'
tp503
a(S'301'
S'300'
S'Rest  10'
S''
S'units'
S'4'
S'-100.0'
S'100000.0'
S'1.0'
S'1'
S'0'
S'0'
S'cts scale'
S'Temp Tbl'
S'1'
S'6'
tp504
a(S'343'
S'342'
S'Rest  10'
S''
S'units'
S'4'
S'-100.0'
S'100000.0'
S'1.0'
S'1'
S'0'
S'0'
S'iat scale'
S'Temp Tbl'
S'1'
S'6'
tp505
a(S'385'
S'384'
S'Rest  10'
S''
S'units'
S'4'
S'-100.0'
S'100000.0'
S'1.0'
S'1'
S'0'
S'0'
S'Thermistor2'
S'Temp Tbl'
S'1'
S'6'
tp506
a(S'303'
S'302'
S'Rest  11'
S''
S'units'
S'4'
S'-100.0'
S'100000.0'
S'1.0'
S'1'
S'0'
S'0'
S'cts scale'
S'Temp Tbl'
S'1'
S'6'
tp507
a(S'345'
S'344'
S'Rest  11'
S''
S'units'
S'4'
S'-100.0'
S'100000.0'
S'1.0'
S'1'
S'0'
S'0'
S'iat scale'
S'Temp Tbl'
S'1'
S'6'
tp508
a(S'387'
S'386'
S'Rest  11'
S''
S'units'
S'4'
S'-100.0'
S'100000.0'
S'1.0'
S'1'
S'0'
S'0'
S'Thermistor2'
S'Temp Tbl'
S'1'
S'6'
tp509
a(S'305'
S'304'
S'Rest  12'
S''
S'units'
S'4'
S'-100.0'
S'100000.0'
S'1.0'
S'1'
S'0'
S'0'
S'cts scale'
S'Temp Tbl'
S'1'
S'6'
tp510
a(S'347'
S'346'
S'Rest  12'
S''
S'units'
S'4'
S'-100.0'
S'100000.0'
S'1.0'
S'1'
S'0'
S'0'
S'iat scale'
S'Temp Tbl'
S'1'
S'6'
tp511
a(S'389'
S'388'
S'Rest  12'
S''
S'units'
S'4'
S'-100.0'
S'100000.0'
S'1.0'
S'1'
S'0'
S'0'
S'Thermistor2'
S'Temp Tbl'
S'1'
S'6'
tp512
a(S'307'
S'306'
S'Rest  13'
S''
S'units'
S'4'
S'-100.0'
S'100000.0'
S'1.0'
S'1'
S'0'
S'0'
S'cts scale'
S'Temp Tbl'
S'1'
S'6'
tp513
a(S'349'
S'348'
S'Rest  13'
S''
S'units'
S'4'
S'-100.0'
S'100000.0'
S'1.0'
S'1'
S'0'
S'0'
S'iat scale'
S'Temp Tbl'
S'1'
S'6'
tp514
a(S'391'
S'390'
S'Rest  13'
S''
S'units'
S'4'
S'-100.0'
S'100000.0'
S'1.0'
S'1'
S'0'
S'0'
S'Thermistor2'
S'Temp Tbl'
S'1'
S'6'
tp515
a(S'309'
S'308'
S'Rest  14'
S''
S'units'
S'4'
S'-100.0'
S'100000.0'
S'1.0'
S'1'
S'0'
S'0'
S'cts scale'
S'Temp Tbl'
S'1'
S'6'
tp516
a(S'351'
S'350'
S'Rest  14'
S''
S'units'
S'4'
S'-100.0'
S'100000.0'
S'1.0'
S'1'
S'0'
S'0'
S'iat scale'
S'Temp Tbl'
S'1'
S'6'
tp517
a(S'393'
S'392'
S'Rest  14'
S''
S'units'
S'4'
S'-100.0'
S'100000.0'
S'1.0'
S'1'
S'0'
S'0'
S'Thermistor2'
S'Temp Tbl'
S'1'
S'6'
tp518
a(S'311'
S'310'
S'Rest  15'
S''
S'units'
S'4'
S'-100.0'
S'100000.0'
S'1.0'
S'1'
S'0'
S'0'
S'cts scale'
S'Temp Tbl'
S'1'
S'6'
tp519
a(S'353'
S'352'
S'Rest  15'
S''
S'units'
S'4'
S'-100.0'
S'100000.0'
S'1.0'
S'1'
S'0'
S'0'
S'iat scale'
S'Temp Tbl'
S'1'
S'6'
tp520
a(S'395'
S'394'
S'Rest  15'
S''
S'units'
S'4'
S'-100.0'
S'100000.0'
S'1.0'
S'1'
S'0'
S'0'
S'Thermistor2'
S'Temp Tbl'
S'1'
S'6'
tp521
a(S'313'
S'312'
S'Rest  16'
S''
S'units'
S'4'
S'-100.0'
S'100000.0'
S'1.0'
S'1'
S'0'
S'0'
S'cts scale'
S'Temp Tbl'
S'1'
S'6'
tp522
a(S'355'
S'354'
S'Rest  16'
S''
S'units'
S'4'
S'-100.0'
S'100000.0'
S'1.0'
S'1'
S'0'
S'0'
S'iat scale'
S'Temp Tbl'
S'1'
S'6'
tp523
a(S'397'
S'396'
S'Rest  16'
S''
S'units'
S'4'
S'-100.0'
S'100000.0'
S'1.0'
S'1'
S'0'
S'0'
S'Thermistor2'
S'Temp Tbl'
S'1'
S'6'
tp524
a(S'315'
S'314'
S'Rest  17'
S''
S'units'
S'4'
S'-100.0'
S'100000.0'
S'1.0'
S'1'
S'0'
S'0'
S'cts scale'
S'Temp Tbl'
S'1'
S'6'
tp525
a(S'357'
S'356'
S'Rest  17'
S''
S'units'
S'4'
S'-100.0'
S'100000.0'
S'1.0'
S'1'
S'0'
S'0'
S'iat scale'
S'Temp Tbl'
S'1'
S'6'
tp526
a(S'399'
S'398'
S'Rest  17'
S''
S'units'
S'4'
S'-100.0'
S'100000.0'
S'1.0'
S'1'
S'0'
S'0'
S'Thermistor2'
S'Temp Tbl'
S'1'
S'6'
tp527
a(S'317'
S'316'
S'Rest  18'
S''
S'units'
S'4'
S'-100.0'
S'100000.0'
S'1.0'
S'1'
S'0'
S'0'
S'cts scale'
S'Temp Tbl'
S'1'
S'6'
tp528
a(S'359'
S'358'
S'Rest  18'
S''
S'units'
S'4'
S'-100.0'
S'100000.0'
S'1.0'
S'1'
S'0'
S'0'
S'iat scale'
S'Temp Tbl'
S'1'
S'6'
tp529
a(S'401'
S'400'
S'Rest  18'
S''
S'units'
S'4'
S'-100.0'
S'100000.0'
S'1.0'
S'1'
S'0'
S'0'
S'Thermistor2'
S'Temp Tbl'
S'1'
S'6'
tp530
a(S'319'
S'318'
S'Rest  19'
S''
S'units'
S'4'
S'-100.0'
S'100000.0'
S'1.0'
S'1'
S'0'
S'0'
S'cts scale'
S'Temp Tbl'
S'1'
S'6'
tp531
a(S'361'
S'360'
S'Rest  19'
S''
S'units'
S'4'
S'-100.0'
S'100000.0'
S'1.0'
S'1'
S'0'
S'0'
S'iat scale'
S'Temp Tbl'
S'1'
S'6'
tp532
a(S'403'
S'402'
S'Rest  19'
S''
S'units'
S'4'
S'-100.0'
S'100000.0'
S'1.0'
S'1'
S'0'
S'0'
S'Thermistor2'
S'Temp Tbl'
S'1'
S'6'
tp533
a(S'285'
S'284'
S'Rest  2'
S''
S'units'
S'4'
S'-100.0'
S'100000.0'
S'1.0'
S'1'
S'0'
S'0'
S'cts scale'
S'Temp Tbl'
S'1'
S'6'
tp534
a(S'327'
S'326'
S'Rest  2'
S''
S'units'
S'4'
S'-100.0'
S'100000.0'
S'1.0'
S'1'
S'0'
S'0'
S'iat scale'
S'Temp Tbl'
S'1'
S'6'
tp535
a(S'369'
S'368'
S'Rest  2'
S''
S'units'
S'4'
S'-100.0'
S'100000.0'
S'1.0'
S'1'
S'0'
S'0'
S'Thermistor2'
S'Temp Tbl'
S'1'
S'6'
tp536
a(S'279'
S'278'
S'Rest  20'
S''
S'units'
S'4'
S'-100.0'
S'100000.0'
S'1.0'
S'1'
S'0'
S'0'
S'Thermistor'
p537
S'Temp Tbl'
S'1'
S'6'
tp538
a(S'321'
S'320'
S'Rest  20'
S''
S'units'
S'4'
S'-100.0'
S'100000.0'
S'1.0'
S'1'
S'0'
S'0'
S'cts scale'
S'Temp Tbl'
S'1'
S'6'
tp539
a(S'363'
S'362'
S'Rest  20'
S''
S'units'
S'4'
S'-100.0'
S'100000.0'
S'1.0'
S'1'
S'0'
S'0'
S'iat scale'
S'Temp Tbl'
S'1'
S'6'
tp540
a(S'405'
S'404'
S'Rest  20'
S''
S'units'
S'4'
S'-100.0'
S'100000.0'
S'1.0'
S'1'
S'0'
S'0'
S'Thermistor2'
S'Temp Tbl'
S'1'
S'6'
tp541
a(S'287'
S'286'
S'Rest  3'
S''
S'units'
S'4'
S'-100.0'
S'100000.0'
S'1.0'
S'1'
S'0'
S'0'
S'cts scale'
S'Temp Tbl'
S'1'
S'6'
tp542
a(S'329'
S'328'
S'Rest  3'
S''
S'units'
S'4'
S'-100.0'
S'100000.0'
S'1.0'
S'1'
S'0'
S'0'
S'iat scale'
S'Temp Tbl'
S'1'
S'6'
tp543
a(S'371'
S'370'
S'Rest  3'
S''
S'units'
S'4'
S'-100.0'
S'100000.0'
S'1.0'
S'1'
S'0'
S'0'
S'Thermistor2'
S'Temp Tbl'
S'1'
S'6'
tp544
a(S'289'
S'288'
S'Rest  4'
S''
S'units'
S'4'
S'-100.0'
S'100000.0'
S'1.0'
S'1'
S'0'
S'0'
S'cts scale'
S'Temp Tbl'
S'1'
S'6'
tp545
a(S'331'
S'330'
S'Rest  4'
S''
S'units'
S'4'
S'-100.0'
S'100000.0'
S'1.0'
S'1'
S'0'
S'0'
S'iat scale'
S'Temp Tbl'
S'1'
S'6'
tp546
a(S'373'
S'372'
S'Rest  4'
S''
S'units'
S'4'
S'-100.0'
S'100000.0'
S'1.0'
S'1'
S'0'
S'0'
S'Thermistor2'
S'Temp Tbl'
S'1'
S'6'
tp547
a(S'291'
S'290'
S'Rest  5'
S''
S'units'
S'4'
S'-100.0'
S'100000.0'
S'1.0'
S'1'
S'0'
S'0'
S'cts scale'
S'Temp Tbl'
S'1'
S'6'
tp548
a(S'333'
S'332'
S'Rest  5'
S''
S'units'
S'4'
S'-100.0'
S'100000.0'
S'1.0'
S'1'
S'0'
S'0'
S'iat scale'
S'Temp Tbl'
S'1'
S'6'
tp549
a(S'375'
S'374'
S'Rest  5'
S''
S'units'
S'4'
S'-100.0'
S'100000.0'
S'1.0'
S'1'
S'0'
S'0'
S'Thermistor2'
S'Temp Tbl'
S'1'
S'6'
tp550
a(S'293'
S'292'
S'Rest  6'
S''
S'units'
S'4'
S'-100.0'
S'100000.0'
S'1.0'
S'1'
S'0'
S'0'
S'cts scale'
S'Temp Tbl'
S'1'
S'6'
tp551
a(S'335'
S'334'
S'Rest  6'
S''
S'units'
S'4'
S'-100.0'
S'100000.0'
S'1.0'
S'1'
S'0'
S'0'
S'iat scale'
S'Temp Tbl'
S'1'
S'6'
tp552
a(S'377'
S'376'
S'Rest  6'
S''
S'units'
S'4'
S'-100.0'
S'100000.0'
S'1.0'
S'1'
S'0'
S'0'
S'Thermistor2'
S'Temp Tbl'
S'1'
S'6'
tp553
a(S'295'
S'294'
S'Rest  7'
S''
S'units'
S'4'
S'-100.0'
S'100000.0'
S'1.0'
S'1'
S'0'
S'0'
S'cts scale'
S'Temp Tbl'
S'1'
S'6'
tp554
a(S'337'
S'336'
S'Rest  7'
S''
S'units'
S'4'
S'-100.0'
S'100000.0'
S'1.0'
S'1'
S'0'
S'0'
S'iat scale'
S'Temp Tbl'
S'1'
S'6'
tp555
a(S'379'
S'378'
S'Rest  7'
S''
S'units'
S'4'
S'-100.0'
S'100000.0'
S'1.0'
S'1'
S'0'
S'0'
S'Thermistor2'
S'Temp Tbl'
S'1'
S'6'
tp556
a(S'297'
S'296'
S'Rest  8'
S''
S'units'
S'4'
S'-100.0'
S'100000.0'
S'1.0'
S'1'
S'0'
S'0'
S'cts scale'
S'Temp Tbl'
S'1'
S'6'
tp557
a(S'339'
S'338'
S'Rest  8'
S''
S'units'
S'4'
S'-100.0'
S'100000.0'
S'1.0'
S'1'
S'0'
S'0'
S'iat scale'
S'Temp Tbl'
S'1'
S'6'
tp558
a(S'381'
S'380'
S'Rest  8'
S''
S'units'
S'4'
S'-100.0'
S'100000.0'
S'1.0'
S'1'
S'0'
S'0'
S'Thermistor2'
S'Temp Tbl'
S'1'
S'6'
tp559
a(S'299'
S'298'
S'Rest  9'
S''
S'units'
S'4'
S'-100.0'
S'100000.0'
S'1.0'
S'1'
S'0'
S'0'
S'cts scale'
S'Temp Tbl'
S'1'
S'6'
tp560
a(S'341'
S'340'
S'Rest  9'
S''
S'units'
S'4'
S'-100.0'
S'100000.0'
S'1.0'
S'1'
S'0'
S'0'
S'iat scale'
S'Temp Tbl'
S'1'
S'6'
tp561
a(S'383'
S'382'
S'Rest  9'
S''
S'units'
S'4'
S'-100.0'
S'100000.0'
S'1.0'
S'1'
S'0'
S'0'
S'Thermistor2'
S'Temp Tbl'
S'1'
S'6'
tp562
a(S'653'
S'591'
S'Rest Tout'
S''
S'seconds'
S'2'
S'-100.0'
S'100000.0'
S'0.005'
S'0'
S'0'
S'0'
S'Gov Items'
S'Main'
S'0'
S'99'
tp563
a(S'562'
S'500'
S'Revision'
S''
S'units'
S'2'
S'0.0'
S'255.0'
S'1.0'
S'0'
S'0'
S'0'
S'MenuItms'
S'Main'
S'0'
S'99'
tp564
a(S'563'
S'501'
S'RevisionDat'
S''
S'units'
S'1'
S'0.0'
S'255.0'
S'1.0'
S'0'
S'0'
S'0'
S'MenuItms'
S'Main'
S'0'
S'99'
tp565
a(S'534'
S'472'
S'Routine Per'
S''
S'Sec'
S'1'
S'-100.0'
S'100000.0'
S'0.001'
S'0'
S'0'
S'0'
S'Tasks'
S'Main'
S'0'
S'99'
tp566
a(S'22'
S'21'
S'RpmMax'
S''
S'units'
S'2'
S'-100.0'
S'100000.0'
S'1.0'
S'0'
S'0'
S'0'
S'Speed Inpt'
S'Cal Items'
S'1'
S'6'
tp567
a(S'652'
S'590'
S'Rst T'
S''
S'seconds'
S'2'
S'-100.0'
S'100000.0'
S'0.005'
S'0'
S'0'
S'0'
S'Gov Items'
S'Main'
S'0'
S'99'
tp568
a(S'529'
S'467'
S'RtiLoop'
S''
S'mS'
S'1'
S'-100.0'
S'100000.0'
S'1.0'
S'0'
S'0'
S'0'
S'Tasks'
S'Main'
S'0'
S'99'
tp569
a(S'206'
S'205'
S'Rtop S0'
S''
S'ohms'
S'4'
S'-100.0'
S'100000.0'
S'1.0'
S'0'
S'0'
S'0'
S'SensorCal'
S'Solar'
S'1'
S'6'
tp570
a(S'216'
S'215'
S'Rtop S1'
S''
S'ohms'
S'4'
S'-100.0'
S'100000.0'
S'1.0'
S'0'
S'0'
S'0'
S'SensorCal'
S'Solar'
S'1'
S'6'
tp571
a(S'225'
S'224'
S'Rtop S2'
S''
S'ohms'
S'4'
S'-100.0'
S'100000.0'
S'1.0'
S'0'
S'0'
S'0'
S'SensorCal'
S'Solar'
S'1'
S'6'
tp572
a(S'234'
S'233'
S'Rtop S3'
S''
S'ohms'
S'4'
S'-100.0'
S'100000.0'
S'1.0'
S'0'
S'0'
S'0'
S'SensorCal'
S'Solar'
S'1'
S'6'
tp573
a(S'243'
S'242'
S'Rtop S4'
S''
S'ohms'
S'4'
S'-100.0'
S'100000.0'
S'1.0'
S'0'
S'0'
S'0'
S'SensorCal'
S'Solar'
S'1'
S'6'
tp574
a(S'252'
S'251'
S'Rtop S5'
S''
S'ohms'
S'4'
S'-100.0'
S'100000.0'
S'1.0'
S'0'
S'0'
S'0'
S'SensorCal'
S'Solar'
S'1'
S'6'
tp575
a(S'261'
S'260'
S'Rtop S7'
S''
S'ohms'
S'4'
S'-100.0'
S'100000.0'
S'1.0'
S'0'
S'0'
S'0'
S'SensorCal'
S'Solar'
S'1'
S'6'
tp576
a(S'270'
S'269'
S'Rtop S8'
S''
S'ohms'
S'4'
S'-100.0'
S'100000.0'
S'1.0'
S'0'
S'0'
S'0'
S'SensorCal'
S'Solar'
S'1'
S'6'
tp577
a(S'590'
S'528'
S'RunT'
S''
S'seconds'
S'2'
S'-100.0'
S'100000.0'
S'1.0'
S'0'
S'0'
S'0'
S'StallItems'
p578
S'Main'
S'0'
S'99'
tp579
a(S'651'
S'589'
S'S Hi'
S''
S'units'
S'4'
S'-100.0'
S'100000.0'
S'1.0'
S'1'
S'0'
S'0'
S'Gov Items'
S'Main'
S'0'
S'99'
tp580
a(S'650'
S'588'
S'S Lo'
S''
S'units'
S'4'
S'-100.0'
S'100000.0'
S'1.0'
S'1'
S'0'
S'0'
S'Gov Items'
S'Main'
S'0'
S'99'
tp581
a(S'13'
S'12'
S'SCP SD'
S''
S'amps'
S'2'
S'-100.0'
S'100000.0'
S'0.00697544642857'
S'0'
S'0'
S'0'
S'Short Prot'
S'Cal Items'
S'1'
S'6'
tp582
a(S'14'
S'13'
S'SCP SD TIM'
S''
S'seconds'
S'2'
S'-100.0'
S'100000.0'
S'0.015999'
S'0'
S'0'
S'0'
S'Short Prot'
S'Cal Items'
S'1'
S'6'
tp583
a(S'530'
S'468'
S'SD Wait'
S''
S'mS'
S'1'
S'-100.0'
S'100000.0'
S'1.0'
S'0'
S'0'
S'0'
S'Tasks'
S'Main'
S'0'
S'99'
tp584
a(S'409'
S'408'
S'SE Glycol / Wt'
S''
S'% SE of Water'
S'4'
S'-100.0'
S'100000.0'
S'100.0'
S'1'
S'0'
S'0'
S'ENG Monitor'
S'Solar'
S'1'
S'6'
tp585
a(S'10'
S'9'
S'SSSD'
S''
S'units'
S'1'
S'-100.0'
S'100000.0'
S'1.0'
S'0'
S'0'
S'0'
S'Short Prot'
S'Cal Items'
S'1'
S'6'
tp586
a(S'414'
S'413'
S'Save Intv Hrs'
S''
S'Hours'
S'1'
S'-100.0'
S'100000.0'
S'1.0'
S'0'
S'0'
S'0'
S'ENG Monitor'
S'Solar'
S'1'
S'6'
tp587
a(S'685'
S'623'
S'Sensor Disa'
S''
S'units'
S'4'
S'-100.0'
S'100000.0'
S'1.0'
S'0'
S'0'
S'0'
S'Solar'
S'Main'
S'0'
S'99'
tp588
a(S'682'
S'620'
S'Set Sp Time'
S''
S'units'
S'1'
S'-100.0'
S'100000.0'
S'1.0'
S'0'
S'0'
S'0'
S'J1939 Rx'
S'Main'
S'0'
S'99'
tp589
a(S'747'
S'685'
S'Shop Floor'
S''
S'deg F'
S'4'
S'-100.0'
S'100000.0'
S'1.0'
S'1'
S'0'
S'1'
S'SensorsFilt'
S'Solar'
S'0'
S'99'
tp590
a(S'691'
S'629'
S'Solar60mS'
S''
S'units'
S'1'
S'-100.0'
S'100000.0'
S'1.0'
S'0'
S'0'
S'0'
S'Solar'
S'Main'
S'0'
S'99'
tp591
a(S'407'
S'406'
S'Sp En'
S''
S'BTU / deg gal'
S'4'
S'-100.0'
S'100000.0'
S'1.0'
S'1'
S'0'
S'0'
S'ENG Monitor'
S'Solar'
S'1'
S'6'
tp592
a(S'25'
S'24'
S'SpdMultipli'
S''
S'units'
S'4'
S'-100.0'
S'100000.0'
S'1.0'
S'1'
S'0'
S'0'
S'Speed Inpt'
S'Cal Items'
S'1'
S'6'
tp593
a(S'681'
S'619'
S'Speed Set'
S''
S'RPM'
S'2'
S'-100.0'
S'100000.0'
S'8.0'
S'0'
S'0'
S'0'
S'J1939 Rx'
S'Main'
S'0'
S'99'
tp594
a(S'708'
S'646'
S'St'
S''
S'units'
S'1'
S'-100.0'
S'100000.0'
S'1.0'
S'0'
S'0'
S'0'
S'Tanks'
S'Solar'
S'0'
S'99'
tp595
a(S'715'
S'653'
S'St'
S''
S'units'
S'1'
S'-100.0'
S'100000.0'
S'1.0'
S'0'
S'0'
S'0'
S'Tanks'
S'Solar'
S'0'
S'99'
tp596
a(S'722'
S'660'
S'St'
S''
S'units'
S'1'
S'-100.0'
S'100000.0'
S'1.0'
S'0'
S'0'
S'0'
S'Tanks'
S'Solar'
S'0'
S'99'
tp597
a(S'729'
S'667'
S'St'
S''
S'units'
S'1'
S'-100.0'
S'100000.0'
S'1.0'
S'0'
S'0'
S'0'
S'Tanks'
S'Solar'
S'0'
S'99'
tp598
a(S'589'
S'527'
S'Stall'
S''
S'seconds'
S'1'
S'-100.0'
S'100000.0'
S'0.015999'
S'0'
S'0'
S'0'
S'StallItems'
S'Main'
S'0'
S'99'
tp599
a(S'35'
S'34'
S'StallTime'
S''
S'seconds'
S'1'
S'-100.0'
S'100000.0'
S'0.015999'
S'0'
S'0'
S'0'
S'stall'
S'Cal Items'
S'1'
S'6'
tp600
a(S'420'
S'419'
S'Store Main Out'
S''
S'ID'
S'1'
S'-100.0'
S'100000.0'
S'1.0'
S'0'
S'0'
S'0'
S'ENG Monitor'
S'Solar'
S'1'
S'6'
tp601
a(S'748'
S'686'
S'T Filt 7'
S''
S'deg F'
S'4'
S'-100.0'
S'100000.0'
S'1.0'
S'1'
S'0'
S'0'
S'SensorsFilt'
S'Solar'
S'0'
S'99'
tp602
a(S'749'
S'687'
S'T Filt 8'
S''
S'deg F'
S'4'
S'-100.0'
S'100000.0'
S'1.0'
S'1'
S'0'
S'0'
S'SensorsFilt'
S'Solar'
S'0'
S'99'
tp603
a(S'734'
S'672'
S'T Raw 1'
S''
S'deg F'
S'4'
S'-100.0'
S'100000.0'
S'1.0'
S'1'
S'0'
S'0'
S'SensorsRaw'
p604
S'Solar'
S'0'
S'99'
tp605
a(S'735'
S'673'
S'T Raw 2'
S''
S'deg F'
S'4'
S'-100.0'
S'100000.0'
S'1.0'
S'1'
S'0'
S'0'
S'SensorsRaw'
S'Solar'
S'0'
S'99'
tp606
a(S'736'
S'674'
S'T Raw 3'
S''
S'deg F'
S'4'
S'-100.0'
S'100000.0'
S'1.0'
S'1'
S'0'
S'0'
S'SensorsRaw'
S'Solar'
S'0'
S'99'
tp607
a(S'737'
S'675'
S'T Raw 4'
S''
S'deg F'
S'4'
S'-100.0'
S'100000.0'
S'1.0'
S'1'
S'0'
S'0'
S'SensorsRaw'
S'Solar'
S'0'
S'99'
tp608
a(S'738'
S'676'
S'T Raw 5'
S''
S'deg F'
S'4'
S'-100.0'
S'100000.0'
S'1.0'
S'1'
S'0'
S'0'
S'SensorsRaw'
S'Solar'
S'0'
S'99'
tp609
a(S'739'
S'677'
S'T Raw 6'
S''
S'deg F'
S'4'
S'-100.0'
S'100000.0'
S'1.0'
S'1'
S'0'
S'0'
S'SensorsRaw'
S'Solar'
S'0'
S'99'
tp610
a(S'740'
S'678'
S'T Raw 7'
S''
S'deg F'
S'4'
S'-100.0'
S'100000.0'
S'1.0'
S'1'
S'0'
S'0'
S'SensorsRaw'
S'Solar'
S'0'
S'99'
tp611
a(S'741'
S'679'
S'T Raw 8'
S''
S'deg F'
S'4'
S'-100.0'
S'100000.0'
S'1.0'
S'1'
S'0'
S'0'
S'SensorsRaw'
S'Solar'
S'0'
S'99'
tp612
a(S'591'
S'529'
S'T St Done'
S''
S'seconds'
S'1'
S'-100.0'
S'100000.0'
S'1.0'
S'0'
S'0'
S'0'
S'StallItems'
S'Main'
S'0'
S'99'
tp613
a(S'588'
S'526'
S'TNOIN'
S''
S'seconds'
S'1'
S'-100.0'
S'100000.0'
S'0.015999'
S'0'
S'0'
S'0'
S'StallItems'
S'Main'
S'0'
S'99'
tp614
a(S'638'
S'576'
S'Teeth PRV'
S''
S'units'
S'2'
S'-100.0'
S'100000.0'
S'1.0'
S'0'
S'0'
S'0'
S'InputISR'
S'Main'
S'0'
S'99'
tp615
a(S'282'
S'281'
S'Temp  0'
S''
S'units'
S'4'
S'-100.0'
S'100000.0'
S'1.0'
S'1'
S'0'
S'0'
S'cts scale'
S'Temp Tbl'
S'1'
S'6'
tp616
a(S'324'
S'323'
S'Temp  0'
S''
S'units'
S'4'
S'-100.0'
S'100000.0'
S'1.0'
S'1'
S'0'
S'0'
S'iat scale'
S'Temp Tbl'
S'1'
S'6'
tp617
a(S'366'
S'365'
S'Temp  0'
S''
S'units'
S'4'
S'-100.0'
S'100000.0'
S'1.0'
S'1'
S'0'
S'0'
S'Thermistor2'
S'Temp Tbl'
S'1'
S'6'
tp618
a(S'284'
S'283'
S'Temp  1'
S''
S'units'
S'4'
S'-100.0'
S'100000.0'
S'1.0'
S'1'
S'0'
S'0'
S'cts scale'
S'Temp Tbl'
S'1'
S'6'
tp619
a(S'326'
S'325'
S'Temp  1'
S''
S'units'
S'4'
S'-100.0'
S'100000.0'
S'1.0'
S'1'
S'0'
S'0'
S'iat scale'
S'Temp Tbl'
S'1'
S'6'
tp620
a(S'368'
S'367'
S'Temp  1'
S''
S'units'
S'4'
S'-100.0'
S'100000.0'
S'1.0'
S'1'
S'0'
S'0'
S'Thermistor2'
S'Temp Tbl'
S'1'
S'6'
tp621
a(S'302'
S'301'
S'Temp  10'
S''
S'units'
S'4'
S'-100.0'
S'100000.0'
S'1.0'
S'1'
S'0'
S'0'
S'cts scale'
S'Temp Tbl'
S'1'
S'6'
tp622
a(S'344'
S'343'
S'Temp  10'
S''
S'units'
S'4'
S'-100.0'
S'100000.0'
S'1.0'
S'1'
S'0'
S'0'
S'iat scale'
S'Temp Tbl'
S'1'
S'6'
tp623
a(S'386'
S'385'
S'Temp  10'
S''
S'units'
S'4'
S'-100.0'
S'100000.0'
S'1.0'
S'1'
S'0'
S'0'
S'Thermistor2'
S'Temp Tbl'
S'1'
S'6'
tp624
a(S'304'
S'303'
S'Temp  11'
S''
S'units'
S'4'
S'-100.0'
S'100000.0'
S'1.0'
S'1'
S'0'
S'0'
S'cts scale'
S'Temp Tbl'
S'1'
S'6'
tp625
a(S'346'
S'345'
S'Temp  11'
S''
S'units'
S'4'
S'-100.0'
S'100000.0'
S'1.0'
S'1'
S'0'
S'0'
S'iat scale'
S'Temp Tbl'
S'1'
S'6'
tp626
a(S'388'
S'387'
S'Temp  11'
S''
S'units'
S'4'
S'-100.0'
S'100000.0'
S'1.0'
S'1'
S'0'
S'0'
S'Thermistor2'
S'Temp Tbl'
S'1'
S'6'
tp627
a(S'306'
S'305'
S'Temp  12'
S''
S'units'
S'4'
S'-100.0'
S'100000.0'
S'1.0'
S'1'
S'0'
S'0'
S'cts scale'
S'Temp Tbl'
S'1'
S'6'
tp628
a(S'348'
S'347'
S'Temp  12'
S''
S'units'
S'4'
S'-100.0'
S'100000.0'
S'1.0'
S'1'
S'0'
S'0'
S'iat scale'
S'Temp Tbl'
S'1'
S'6'
tp629
a(S'390'
S'389'
S'Temp  12'
S''
S'units'
S'4'
S'-100.0'
S'100000.0'
S'1.0'
S'1'
S'0'
S'0'
S'Thermistor2'
S'Temp Tbl'
S'1'
S'6'
tp630
a(S'308'
S'307'
S'Temp  13'
S''
S'units'
S'4'
S'-100.0'
S'100000.0'
S'1.0'
S'1'
S'0'
S'0'
S'cts scale'
S'Temp Tbl'
S'1'
S'6'
tp631
a(S'350'
S'349'
S'Temp  13'
S''
S'units'
S'4'
S'-100.0'
S'100000.0'
S'1.0'
S'1'
S'0'
S'0'
S'iat scale'
S'Temp Tbl'
S'1'
S'6'
tp632
a(S'392'
S'391'
S'Temp  13'
S''
S'units'
S'4'
S'-100.0'
S'100000.0'
S'1.0'
S'1'
S'0'
S'0'
S'Thermistor2'
S'Temp Tbl'
S'1'
S'6'
tp633
a(S'310'
S'309'
S'Temp  14'
S''
S'units'
S'4'
S'-100.0'
S'100000.0'
S'1.0'
S'1'
S'0'
S'0'
S'cts scale'
S'Temp Tbl'
S'1'
S'6'
tp634
a(S'352'
S'351'
S'Temp  14'
S''
S'units'
S'4'
S'-100.0'
S'100000.0'
S'1.0'
S'1'
S'0'
S'0'
S'iat scale'
S'Temp Tbl'
S'1'
S'6'
tp635
a(S'394'
S'393'
S'Temp  14'
S''
S'units'
S'4'
S'-100.0'
S'100000.0'
S'1.0'
S'1'
S'0'
S'0'
S'Thermistor2'
S'Temp Tbl'
S'1'
S'6'
tp636
a(S'312'
S'311'
S'Temp  15'
S''
S'units'
S'4'
S'-100.0'
S'100000.0'
S'1.0'
S'1'
S'0'
S'0'
S'cts scale'
S'Temp Tbl'
S'1'
S'6'
tp637
a(S'354'
S'353'
S'Temp  15'
S''
S'units'
S'4'
S'-100.0'
S'100000.0'
S'1.0'
S'1'
S'0'
S'0'
S'iat scale'
S'Temp Tbl'
S'1'
S'6'
tp638
a(S'396'
S'395'
S'Temp  15'
S''
S'units'
S'4'
S'-100.0'
S'100000.0'
S'1.0'
S'1'
S'0'
S'0'
S'Thermistor2'
S'Temp Tbl'
S'1'
S'6'
tp639
a(S'314'
S'313'
S'Temp  16'
S''
S'units'
S'4'
S'-100.0'
S'100000.0'
S'1.0'
S'1'
S'0'
S'0'
S'cts scale'
S'Temp Tbl'
S'1'
S'6'
tp640
a(S'356'
S'355'
S'Temp  16'
S''
S'units'
S'4'
S'-100.0'
S'100000.0'
S'1.0'
S'1'
S'0'
S'0'
S'iat scale'
S'Temp Tbl'
S'1'
S'6'
tp641
a(S'398'
S'397'
S'Temp  16'
S''
S'units'
S'4'
S'-100.0'
S'100000.0'
S'1.0'
S'1'
S'0'
S'0'
S'Thermistor2'
S'Temp Tbl'
S'1'
S'6'
tp642
a(S'316'
S'315'
S'Temp  17'
S''
S'units'
S'4'
S'-100.0'
S'100000.0'
S'1.0'
S'1'
S'0'
S'0'
S'cts scale'
S'Temp Tbl'
S'1'
S'6'
tp643
a(S'358'
S'357'
S'Temp  17'
S''
S'units'
S'4'
S'-100.0'
S'100000.0'
S'1.0'
S'1'
S'0'
S'0'
S'iat scale'
S'Temp Tbl'
S'1'
S'6'
tp644
a(S'400'
S'399'
S'Temp  17'
S''
S'units'
S'4'
S'-100.0'
S'100000.0'
S'1.0'
S'1'
S'0'
S'0'
S'Thermistor2'
S'Temp Tbl'
S'1'
S'6'
tp645
a(S'318'
S'317'
S'Temp  18'
S''
S'units'
S'4'
S'-100.0'
S'100000.0'
S'1.0'
S'1'
S'0'
S'0'
S'cts scale'
S'Temp Tbl'
S'1'
S'6'
tp646
a(S'360'
S'359'
S'Temp  18'
S''
S'units'
S'4'
S'-100.0'
S'100000.0'
S'1.0'
S'1'
S'0'
S'0'
S'iat scale'
S'Temp Tbl'
S'1'
S'6'
tp647
a(S'402'
S'401'
S'Temp  18'
S''
S'units'
S'4'
S'-100.0'
S'100000.0'
S'1.0'
S'1'
S'0'
S'0'
S'Thermistor2'
S'Temp Tbl'
S'1'
S'6'
tp648
a(S'320'
S'319'
S'Temp  19'
S''
S'units'
S'4'
S'-100.0'
S'100000.0'
S'1.0'
S'1'
S'0'
S'0'
S'cts scale'
S'Temp Tbl'
S'1'
S'6'
tp649
a(S'362'
S'361'
S'Temp  19'
S''
S'units'
S'4'
S'-100.0'
S'100000.0'
S'1.0'
S'1'
S'0'
S'0'
S'iat scale'
S'Temp Tbl'
S'1'
S'6'
tp650
a(S'404'
S'403'
S'Temp  19'
S''
S'units'
S'4'
S'-100.0'
S'100000.0'
S'1.0'
S'1'
S'0'
S'0'
S'Thermistor2'
S'Temp Tbl'
S'1'
S'6'
tp651
a(S'286'
S'285'
S'Temp  2'
S''
S'units'
S'4'
S'-100.0'
S'100000.0'
S'1.0'
S'1'
S'0'
S'0'
S'cts scale'
S'Temp Tbl'
S'1'
S'6'
tp652
a(S'328'
S'327'
S'Temp  2'
S''
S'units'
S'4'
S'-100.0'
S'100000.0'
S'1.0'
S'1'
S'0'
S'0'
S'iat scale'
S'Temp Tbl'
S'1'
S'6'
tp653
a(S'370'
S'369'
S'Temp  2'
S''
S'units'
S'4'
S'-100.0'
S'100000.0'
S'1.0'
S'1'
S'0'
S'0'
S'Thermistor2'
S'Temp Tbl'
S'1'
S'6'
tp654
a(S'280'
S'279'
S'Temp  20'
S''
S'units'
S'4'
S'-100.0'
S'100000.0'
S'1.0'
S'1'
S'0'
S'0'
S'Thermistor'
S'Temp Tbl'
S'1'
S'6'
tp655
a(S'322'
S'321'
S'Temp  20'
S''
S'units'
S'4'
S'-100.0'
S'100000.0'
S'1.0'
S'1'
S'0'
S'0'
S'cts scale'
S'Temp Tbl'
S'1'
S'6'
tp656
a(S'364'
S'363'
S'Temp  20'
S''
S'units'
S'4'
S'-100.0'
S'100000.0'
S'1.0'
S'1'
S'0'
S'0'
S'iat scale'
S'Temp Tbl'
S'1'
S'6'
tp657
a(S'406'
S'405'
S'Temp  20'
S''
S'units'
S'4'
S'-100.0'
S'100000.0'
S'1.0'
S'1'
S'0'
S'0'
S'Thermistor2'
S'Temp Tbl'
S'1'
S'6'
tp658
a(S'288'
S'287'
S'Temp  3'
S''
S'units'
S'4'
S'-100.0'
S'100000.0'
S'1.0'
S'1'
S'0'
S'0'
S'cts scale'
S'Temp Tbl'
S'1'
S'6'
tp659
a(S'330'
S'329'
S'Temp  3'
S''
S'units'
S'4'
S'-100.0'
S'100000.0'
S'1.0'
S'1'
S'0'
S'0'
S'iat scale'
S'Temp Tbl'
S'1'
S'6'
tp660
a(S'372'
S'371'
S'Temp  3'
S''
S'units'
S'4'
S'-100.0'
S'100000.0'
S'1.0'
S'1'
S'0'
S'0'
S'Thermistor2'
S'Temp Tbl'
S'1'
S'6'
tp661
a(S'290'
S'289'
S'Temp  4'
S''
S'units'
S'4'
S'-100.0'
S'100000.0'
S'1.0'
S'1'
S'0'
S'0'
S'cts scale'
S'Temp Tbl'
S'1'
S'6'
tp662
a(S'332'
S'331'
S'Temp  4'
S''
S'units'
S'4'
S'-100.0'
S'100000.0'
S'1.0'
S'1'
S'0'
S'0'
S'iat scale'
S'Temp Tbl'
S'1'
S'6'
tp663
a(S'374'
S'373'
S'Temp  4'
S''
S'units'
S'4'
S'-100.0'
S'100000.0'
S'1.0'
S'1'
S'0'
S'0'
S'Thermistor2'
S'Temp Tbl'
S'1'
S'6'
tp664
a(S'292'
S'291'
S'Temp  5'
S''
S'units'
S'4'
S'-100.0'
S'100000.0'
S'1.0'
S'1'
S'0'
S'0'
S'cts scale'
S'Temp Tbl'
S'1'
S'6'
tp665
a(S'334'
S'333'
S'Temp  5'
S''
S'units'
S'4'
S'-100.0'
S'100000.0'
S'1.0'
S'1'
S'0'
S'0'
S'iat scale'
S'Temp Tbl'
S'1'
S'6'
tp666
a(S'376'
S'375'
S'Temp  5'
S''
S'units'
S'4'
S'-100.0'
S'100000.0'
S'1.0'
S'1'
S'0'
S'0'
S'Thermistor2'
S'Temp Tbl'
S'1'
S'6'
tp667
a(S'294'
S'293'
S'Temp  6'
S''
S'units'
S'4'
S'-100.0'
S'100000.0'
S'1.0'
S'1'
S'0'
S'0'
S'cts scale'
S'Temp Tbl'
S'1'
S'6'
tp668
a(S'336'
S'335'
S'Temp  6'
S''
S'units'
S'4'
S'-100.0'
S'100000.0'
S'1.0'
S'1'
S'0'
S'0'
S'iat scale'
S'Temp Tbl'
S'1'
S'6'
tp669
a(S'378'
S'377'
S'Temp  6'
S''
S'units'
S'4'
S'-100.0'
S'100000.0'
S'1.0'
S'1'
S'0'
S'0'
S'Thermistor2'
S'Temp Tbl'
S'1'
S'6'
tp670
a(S'296'
S'295'
S'Temp  7'
S''
S'units'
S'4'
S'-100.0'
S'100000.0'
S'1.0'
S'1'
S'0'
S'0'
S'cts scale'
S'Temp Tbl'
S'1'
S'6'
tp671
a(S'338'
S'337'
S'Temp  7'
S''
S'units'
S'4'
S'-100.0'
S'100000.0'
S'1.0'
S'1'
S'0'
S'0'
S'iat scale'
S'Temp Tbl'
S'1'
S'6'
tp672
a(S'380'
S'379'
S'Temp  7'
S''
S'units'
S'4'
S'-100.0'
S'100000.0'
S'1.0'
S'1'
S'0'
S'0'
S'Thermistor2'
S'Temp Tbl'
S'1'
S'6'
tp673
a(S'298'
S'297'
S'Temp  8'
S''
S'units'
S'4'
S'-100.0'
S'100000.0'
S'1.0'
S'1'
S'0'
S'0'
S'cts scale'
S'Temp Tbl'
S'1'
S'6'
tp674
a(S'340'
S'339'
S'Temp  8'
S''
S'units'
S'4'
S'-100.0'
S'100000.0'
S'1.0'
S'1'
S'0'
S'0'
S'iat scale'
S'Temp Tbl'
S'1'
S'6'
tp675
a(S'382'
S'381'
S'Temp  8'
S''
S'units'
S'4'
S'-100.0'
S'100000.0'
S'1.0'
S'1'
S'0'
S'0'
S'Thermistor2'
S'Temp Tbl'
S'1'
S'6'
tp676
a(S'300'
S'299'
S'Temp  9'
S''
S'units'
S'4'
S'-100.0'
S'100000.0'
S'1.0'
S'1'
S'0'
S'0'
S'cts scale'
S'Temp Tbl'
S'1'
S'6'
tp677
a(S'342'
S'341'
S'Temp  9'
S''
S'units'
S'4'
S'-100.0'
S'100000.0'
S'1.0'
S'1'
S'0'
S'0'
S'iat scale'
S'Temp Tbl'
S'1'
S'6'
tp678
a(S'384'
S'383'
S'Temp  9'
S''
S'units'
S'4'
S'-100.0'
S'100000.0'
S'1.0'
S'1'
S'0'
S'0'
S'Thermistor2'
S'Temp Tbl'
S'1'
S'6'
tp679
a(S'449'
S'448'
S'Temp 4 Full'
S''
S'units'
S'1'
S'-100.0'
S'100000.0'
S'1.0'
S'0'
S'0'
S'0'
S'Modulate'
S'Solar'
S'1'
S'6'
tp680
a(S'100'
S'99'
S'Temp Filt 0'
S''
S'%'
S'1'
S'-100.0'
S'100000.0'
S'0.392156862745'
S'0'
S'0'
S'0'
S'Stores 1-2'
S'Solar'
S'1'
S'6'
tp681
a(S'131'
S'130'
S'Temp Filt 1'
S''
S'%'
S'1'
S'-100.0'
S'100000.0'
S'0.392156862745'
S'0'
S'0'
S'0'
S'Stores 1-2'
S'Solar'
S'1'
S'6'
tp682
a(S'162'
S'161'
S'Temp Filt 2'
S''
S'%'
S'1'
S'-100.0'
S'100000.0'
S'0.392156862745'
S'0'
S'0'
S'0'
S'Stores 3-4'
S'Solar'
S'1'
S'6'
tp683
a(S'193'
S'192'
S'Temp Filt 3'
S''
S'%'
S'1'
S'-100.0'
S'100000.0'
S'0.392156862745'
S'0'
S'0'
S'0'
S'Stores 3-4'
S'Solar'
S'1'
S'6'
tp684
a(S'77'
S'76'
S'Tfixed 0'
S''
S'deg f'
S'1'
S'-100.0'
S'100000.0'
S'1.0'
S'0'
S'0'
S'0'
S'Stores 1-2'
S'Solar'
S'1'
S'6'
tp685
a(S'108'
S'107'
S'Tfixed 1'
S''
S'deg f'
S'1'
S'-100.0'
S'100000.0'
S'1.0'
S'0'
S'0'
S'0'
S'Stores 1-2'
S'Solar'
S'1'
S'6'
tp686
a(S'139'
S'138'
S'Tfixed 2'
S''
S'deg f'
S'1'
S'-100.0'
S'100000.0'
S'1.0'
S'0'
S'0'
S'0'
S'Stores 3-4'
S'Solar'
S'1'
S'6'
tp687
a(S'170'
S'169'
S'Tfixed 3'
S''
S'deg f'
S'1'
S'-100.0'
S'100000.0'
S'1.0'
S'0'
S'0'
S'0'
S'Stores 3-4'
S'Solar'
S'1'
S'6'
tp688
a(S'705'
S'643'
S'Threshold'
S''
S'sec'
S'1'
S'-100.0'
S'100000.0'
S'1.024'
S'0'
S'0'
S'0'
S'Solar'
S'Main'
S'0'
S'99'
tp689
a(S'551'
S'489'
S'Timer Tsk 0'
S''
S'units'
S'1'
S'-100.0'
S'100000.0'
S'1.0'
S'0'
S'0'
S'0'
S'Tasks'
S'Main'
S'0'
S'99'
tp690
a(S'552'
S'490'
S'Timer Tsk 1'
S''
S'units'
S'1'
S'-100.0'
S'100000.0'
S'1.0'
S'0'
S'0'
S'0'
S'Tasks'
S'Main'
S'0'
S'99'
tp691
a(S'711'
S'649'
S'Tin'
S''
S'units'
S'4'
S'-100.0'
S'100000.0'
S'1.0'
S'1'
S'0'
S'0'
S'Tanks'
S'Solar'
S'0'
S'99'
tp692
a(S'718'
S'656'
S'Tin'
S''
S'units'
S'4'
S'-100.0'
S'100000.0'
S'1.0'
S'1'
S'0'
S'0'
S'Tanks'
S'Solar'
S'0'
S'99'
tp693
a(S'725'
S'663'
S'Tin'
S''
S'units'
S'4'
S'-100.0'
S'100000.0'
S'1.0'
S'1'
S'0'
S'0'
S'Tanks'
S'Solar'
S'0'
S'99'
tp694
a(S'732'
S'670'
S'Tin'
S''
S'units'
S'4'
S'-100.0'
S'100000.0'
S'1.0'
S'1'
S'0'
S'0'
S'Tanks'
S'Solar'
S'0'
S'99'
tp695
a(S'75'
S'74'
S'Tin ix 0'
S''
S'index'
S'1'
S'-100.0'
S'100000.0'
S'1.0'
S'0'
S'0'
S'0'
S'Stores 1-2'
S'Solar'
S'1'
S'6'
tp696
a(S'106'
S'105'
S'Tin ix 1'
S''
S'index'
S'1'
S'-100.0'
S'100000.0'
S'1.0'
S'0'
S'0'
S'0'
S'Stores 1-2'
S'Solar'
S'1'
S'6'
tp697
a(S'137'
S'136'
S'Tin ix 2'
S''
S'index'
S'1'
S'-100.0'
S'100000.0'
S'1.0'
S'0'
S'0'
S'0'
S'Stores 3-4'
S'Solar'
S'1'
S'6'
tp698
a(S'168'
S'167'
S'Tin ix 3'
S''
S'index'
S'1'
S'-100.0'
S'100000.0'
S'1.0'
S'0'
S'0'
S'0'
S'Stores 3-4'
S'Solar'
S'1'
S'6'
tp699
a(S'28'
S'27'
S'Tooth Max'
S''
S'units'
S'2'
S'-100.0'
S'100000.0'
S'1.0'
S'0'
S'0'
S'0'
S'Speed Inpt'
S'Cal Items'
S'1'
S'6'
tp700
a(S'27'
S'26'
S'Tooth Min'
S''
S'Inputs'
S'2'
S'-100.0'
S'100000.0'
S'1.0'
S'0'
S'0'
S'0'
S'Speed Inpt'
S'Cal Items'
S'1'
S'6'
tp701
a(S'639'
S'577'
S'Tooth New'
S''
S'units'
S'4'
S'-100.0'
S'100000.0'
S'1.0'
S'0'
S'0'
S'0'
S'InputISR'
S'Main'
S'0'
S'99'
tp702
a(S'709'
S'647'
S'Top'
S''
S'units'
S'4'
S'-100.0'
S'100000.0'
S'1.0'
S'1'
S'0'
S'0'
S'Tanks'
S'Solar'
S'0'
S'99'
tp703
a(S'716'
S'654'
S'Top'
S''
S'units'
S'4'
S'-100.0'
S'100000.0'
S'1.0'
S'1'
S'0'
S'0'
S'Tanks'
S'Solar'
S'0'
S'99'
tp704
a(S'723'
S'661'
S'Top'
S''
S'units'
S'4'
S'-100.0'
S'100000.0'
S'1.0'
S'1'
S'0'
S'0'
S'Tanks'
S'Solar'
S'0'
S'99'
tp705
a(S'730'
S'668'
S'Top'
S''
S'units'
S'4'
S'-100.0'
S'100000.0'
S'1.0'
S'1'
S'0'
S'0'
S'Tanks'
S'Solar'
S'0'
S'99'
tp706
a(S'410'
S'409'
S'Tot Upd Int'
S''
S'sec'
S'2'
S'-100.0'
S'100000.0'
S'1.024'
S'0'
S'0'
S'0'
S'ENG Monitor'
S'Solar'
S'1'
S'6'
tp707
a(S'712'
S'650'
S'Tout'
S''
S'units'
S'4'
S'-100.0'
S'100000.0'
S'1.0'
S'1'
S'0'
S'0'
S'Tanks'
S'Solar'
S'0'
S'99'
tp708
a(S'719'
S'657'
S'Tout'
S''
S'units'
S'4'
S'-100.0'
S'100000.0'
S'1.0'
S'1'
S'0'
S'0'
S'Tanks'
S'Solar'
S'0'
S'99'
tp709
a(S'726'
S'664'
S'Tout'
S''
S'units'
S'4'
S'-100.0'
S'100000.0'
S'1.0'
S'1'
S'0'
S'0'
S'Tanks'
S'Solar'
S'0'
S'99'
tp710
a(S'733'
S'671'
S'Tout'
S''
S'units'
S'4'
S'-100.0'
S'100000.0'
S'1.0'
S'1'
S'0'
S'0'
S'Tanks'
S'Solar'
S'0'
S'99'
tp711
a(S'76'
S'75'
S'Tout ix 0'
S''
S'index'
S'1'
S'-100.0'
S'100000.0'
S'1.0'
S'0'
S'0'
S'0'
S'Stores 1-2'
S'Solar'
S'1'
S'6'
tp712
a(S'107'
S'106'
S'Tout ix 1'
S''
S'index'
S'1'
S'-100.0'
S'100000.0'
S'1.0'
S'0'
S'0'
S'0'
S'Stores 1-2'
S'Solar'
S'1'
S'6'
tp713
a(S'138'
S'137'
S'Tout ix 2'
S''
S'index'
S'1'
S'-100.0'
S'100000.0'
S'1.0'
S'0'
S'0'
S'0'
S'Stores 3-4'
S'Solar'
S'1'
S'6'
tp714
a(S'169'
S'168'
S'Tout ix 3'
S''
S'index'
S'1'
S'-100.0'
S'100000.0'
S'1.0'
S'0'
S'0'
S'0'
S'Stores 3-4'
S'Solar'
S'1'
S'6'
tp715
a(S'78'
S'77'
S'Tp Sen ix 0'
S''
S'index'
S'1'
S'-100.0'
S'100000.0'
S'1.0'
S'0'
S'0'
S'0'
S'Stores 1-2'
S'Solar'
S'1'
S'6'
tp716
a(S'109'
S'108'
S'Tp Sen ix 1'
S''
S'index'
S'1'
S'-100.0'
S'100000.0'
S'1.0'
S'0'
S'0'
S'0'
S'Stores 1-2'
S'Solar'
S'1'
S'6'
tp717
a(S'140'
S'139'
S'Tp Sen ix 2'
S''
S'index'
S'1'
S'-100.0'
S'100000.0'
S'1.0'
S'0'
S'0'
S'0'
S'Stores 3-4'
S'Solar'
S'1'
S'6'
tp718
a(S'171'
S'170'
S'Tp Sen ix 3'
S''
S'index'
S'1'
S'-100.0'
S'100000.0'
S'1.0'
S'0'
S'0'
S'0'
S'Stores 3-4'
S'Solar'
S'1'
S'6'
tp719
a(S'692'
S'630'
S'UI Engy'
S''
S'units'
S'4'
S'-100.0'
S'100000.0'
S'1.0'
S'1'
S'0'
S'0'
S'Solar'
S'Main'
S'0'
S'99'
tp720
a(S'522'
S'460'
S'UI Prty'
S''
S'units'
S'1'
S'-100.0'
S'100000.0'
S'1.0'
S'0'
S'0'
S'0'
S'Tasks'
S'Main'
S'0'
S'99'
tp721
a(S'541'
S'479'
S'UI Task'
S''
S'units'
S'4'
S'-100.0'
S'100000.0'
S'1.0'
S'0'
S'0'
S'0'
S'Tasks'
S'Main'
S'0'
S'99'
tp722
a(S'74'
S'73'
S'UPS Pwr'
S''
S'watts'
S'1'
S'-100.0'
S'100000.0'
S'1.0'
S'0'
S'0'
S'0'
S'Output Pwr'
S'Solar'
S'1'
S'6'
tp723
a(S'603'
S'541'
S'Up DB'
S''
S'seconds'
S'1'
S'-100.0'
S'100000.0'
S'0.015999'
S'0'
S'1'
S'0'
S'DISC INPUTs'
S'Main'
S'0'
S'99'
tp724
a(S'415'
S'414'
S'Up Timer'
S''
S'sec'
S'4'
S'-100.0'
S'100000.0'
S'1.0'
S'0'
S'0'
S'0'
S'ENG Monitor'
S'Solar'
S'1'
S'6'
tp725
a(S'210'
S'209'
S'VPwr Index S0'
S''
S'index'
S'1'
S'-100.0'
S'100000.0'
S'1.0'
S'0'
S'0'
S'0'
S'SensorCal'
S'Solar'
S'1'
S'6'
tp726
a(S'220'
S'219'
S'VPwr Index S1'
S''
S'index'
S'1'
S'-100.0'
S'100000.0'
S'1.0'
S'0'
S'0'
S'0'
S'SensorCal'
S'Solar'
S'1'
S'6'
tp727
a(S'229'
S'228'
S'VPwr Index S2'
S''
S'index'
S'1'
S'-100.0'
S'100000.0'
S'1.0'
S'0'
S'0'
S'0'
S'SensorCal'
S'Solar'
S'1'
S'6'
tp728
a(S'238'
S'237'
S'VPwr Index S3'
S''
S'index'
S'1'
S'-100.0'
S'100000.0'
S'1.0'
S'0'
S'0'
S'0'
S'SensorCal'
S'Solar'
S'1'
S'6'
tp729
a(S'247'
S'246'
S'VPwr Index S4'
S''
S'index'
S'1'
S'-100.0'
S'100000.0'
S'1.0'
S'0'
S'0'
S'0'
S'SensorCal'
S'Solar'
S'1'
S'6'
tp730
a(S'256'
S'255'
S'VPwr Index S5'
S''
S'index'
S'1'
S'-100.0'
S'100000.0'
S'1.0'
S'0'
S'0'
S'0'
S'SensorCal'
S'Solar'
S'1'
S'6'
tp731
a(S'265'
S'264'
S'VPwr Index S7'
S''
S'index'
S'1'
S'-100.0'
S'100000.0'
S'1.0'
S'0'
S'0'
S'0'
S'SensorCal'
S'Solar'
S'1'
S'6'
tp732
a(S'274'
S'273'
S'VPwr Index S8'
S''
S'index'
S'1'
S'-100.0'
S'100000.0'
S'1.0'
S'0'
S'0'
S'0'
S'SensorCal'
S'Solar'
S'1'
S'6'
tp733
a(S'777'
S'715'
S'Vext'
S''
S'units'
S'4'
S'-100.0'
S'100000.0'
S'1.0'
S'1'
S'0'
S'0'
S'Pots'
S'P1'
S'0'
S'99'
tp734
a(S'566'
S'504'
S'Vin'
S''
S'volts'
S'2'
S'-100.0'
S'100000.0'
S'0.0537109375'
S'0'
S'0'
S'0'
S'Analog'
S'Main'
S'0'
S'99'
tp735
a(S'60'
S'59'
S'VinScale'
S''
S'units'
S'4'
S'-100.0'
S'100000.0'
S'1.0'
S'1'
S'0'
S'0'
S'Solar'
S'Cal Items'
S'1'
S'6'
tp736
a(S'645'
S'583'
S'VoltGain'
S''
S'units'
S'4'
S'-100.0'
S'100000.0'
S'1.0'
S'1'
S'0'
S'0'
S'Gov Items'
S'Main'
S'0'
S'99'
tp737
a(S'550'
S'488'
S'WDG Tmrs'
S''
S'units'
S'1'
S'-100.0'
S'100000.0'
S'1.0'
S'0'
S'0'
S'0'
S'Tasks'
S'Main'
S'0'
S'99'
tp738
a(S'617'
S'555'
S'WR VOLTS'
S''
S'Volts'
S'2'
S'-100.0'
S'100000.0'
S'0.0537109375'
S'0'
S'0'
S'0'
S'Hourmeter'
S'Main'
S'0'
S'99'
tp739
a(S'743'
S'681'
S'WT'
S''
S'deg F'
S'4'
S'-100.0'
S'100000.0'
S'1.0'
S'1'
S'0'
S'1'
S'SensorsFilt'
S'Solar'
S'0'
S'99'
tp740
a(S'615'
S'553'
S'Wr Interv'
S''
S'seconds'
S'4'
S'-100.0'
S'100000.0'
S'1.0'
S'0'
S'0'
S'0'
S'Hourmeter'
S'Main'
S'0'
S'99'
tp741
a(S'579'
S'517'
S'additions'
S''
S'units'
S'2'
S'-100.0'
S'100000.0'
S'1.0'
S'0'
S'0'
S'0'
S'PWM_Paramet'
S'var_info'
S'0'
S'99'
tp742
a(S'779'
S'717'
S'analog2'
S''
S'units'
S'4'
S'-100.0'
S'100000.0'
S'1.0'
S'1'
S'0'
S'0'
S'Pots'
S'P1'
S'0'
S'99'
tp743
a(S'665'
S'603'
S'd RPM'
S''
S'units'
S'1'
S'-100.0'
S'100000.0'
S'1.0'
S'0'
S'0'
S'0'
S'Gov Items'
S'Main'
S'0'
S'99'
tp744
a(S'664'
S'602'
S'd flt coe'
S''
S'units'
S'4'
S'-100.0'
S'100000.0'
S'1.0'
S'1'
S'0'
S'0'
S'Gov Items'
S'Main'
S'0'
S'99'
tp745
a(S'647'
S'585'
S'dSp Flt'
S''
S'units'
S'4'
S'-100.0'
S'100000.0'
S'1.0'
S'1'
S'0'
S'0'
S'Gov Items'
S'Main'
S'0'
S'99'
tp746
a(S'631'
S'569'
S'delta'
S''
S'units'
S'4'
S'-100.0'
S'100000.0'
S'1.0'
S'0'
S'0'
S'0'
S'InputISR'
S'Main'
S'0'
S'99'
tp747
a(S'661'
S'599'
S'f Spd flt c'
S''
S'units'
S'4'
S'-100.0'
S'100000.0'
S'1.0'
S'1'
S'0'
S'0'
S'Gov Items'
S'Main'
S'0'
S'99'
tp748
a(S'660'
S'598'
S'fBlend'
S''
S'units'
S'4'
S'-100.0'
S'100000.0'
S'1.0'
S'1'
S'0'
S'0'
S'Gov Items'
S'Main'
S'0'
S'99'
tp749
a(S'655'
S'593'
S'fSpd'
S''
S'units'
S'4'
S'-100.0'
S'100000.0'
S'1.0'
S'1'
S'0'
S'0'
S'Gov Items'
S'Main'
S'0'
S'99'
tp750
a(S'656'
S'594'
S'fSpdP1'
S''
S'units'
S'4'
S'-100.0'
S'100000.0'
S'1.0'
S'1'
S'0'
S'0'
S'Gov Items'
S'Main'
S'0'
S'99'
tp751
a(S'663'
S'601'
S'fdRPM'
S''
S'units'
S'4'
S'-100.0'
S'100000.0'
S'1.0'
S'1'
S'0'
S'0'
S'Gov Items'
S'Main'
S'0'
S'99'
tp752
a(S'451'
S'450'
S'int1'
S''
S'units'
S'1'
S'-100.0'
S'100000.0'
S'1.0'
S'0'
S'0'
S'0'
S'Modulate'
S'Solar'
S'1'
S'6'
tp753
a(S'452'
S'451'
S'int2'
S''
S'units'
S'1'
S'-100.0'
S'100000.0'
S'1.0'
S'0'
S'0'
S'0'
S'Modulate'
S'Solar'
S'1'
S'6'
tp754
a(S'453'
S'452'
S'int3'
S''
S'units'
S'1'
S'-100.0'
S'100000.0'
S'1.0'
S'0'
S'0'
S'0'
S'Modulate'
S'Solar'
S'1'
S'6'
tp755
a(S'586'
S'524'
S'lcd rpm'
S''
S'units'
S'2'
S'-100.0'
S'100000.0'
S'1.0'
S'0'
S'0'
S'0'
S'ProgramVari'
S'var_info'
S'0'
S'99'
tp756
a(S'557'
S'495'
S'logging v'
S''
S'units'
S'1'
S'-100.0'
S'100000.0'
S'1.0'
S'0'
S'0'
S'0'
S'MenuItms'
S'Main'
S'0'
S'99'
tp757
a(S'618'
S'556'
S'overflow wo'
S''
S'units'
S'4'
S'-100.0'
S'100000.0'
S'1.0'
S'0'
S'0'
S'0'
S'Hourmeter'
S'Main'
S'0'
S'99'
tp758
a(S'634'
S'572'
S'pdc'
S''
S'units'
S'4'
S'-100.0'
S'100000.0'
S'1.0'
S'0'
S'0'
S'0'
S'InputISR'
S'Main'
S'0'
S'99'
tp759
a(S'632'
S'570'
S'tc 1'
S''
S'units'
S'4'
S'-100.0'
S'100000.0'
S'1.0'
S'0'
S'0'
S'0'
S'InputISR'
S'Main'
S'0'
S'99'
tp760
a(S'630'
S'568'
S'tmp'
S''
S'units'
S'4'
S'-100.0'
S'100000.0'
S'1.0'
S'0'
S'0'
S'0'
S'InputISR'
S'Main'
S'0'
S'99'
tp761
a.